   1               		.file	"mainStateMachine.c"
   2               	__SP_H__ = 0x3e
   3               	__SP_L__ = 0x3d
   4               	__SREG__ = 0x3f
   5               	__RAMPZ__ = 0x3b
   6               	__tmp_reg__ = 0
   7               	__zero_reg__ = 1
   9               		.text
  10               	.Ltext0:
 124               		.section	.rodata.str1.1,"aMS",@progbits,1
 125               	.LC0:
 126 0000 0D0A 00   		.string	"\r\n"
 127               		.text
 131               	.global	sendUartToInterface
 133               	sendUartToInterface:
   1:/Users/marklee/Documents/xcode/avr/DTU/Robot_test/Robot_test/mainStateMachine.c **** //
   2:/Users/marklee/Documents/xcode/avr/DTU/Robot_test/Robot_test/mainStateMachine.c **** //  mainStateMachine.c
   3:/Users/marklee/Documents/xcode/avr/DTU/Robot_test/Robot_test/mainStateMachine.c **** //  Robot_test
   4:/Users/marklee/Documents/xcode/avr/DTU/Robot_test/Robot_test/mainStateMachine.c **** //
   5:/Users/marklee/Documents/xcode/avr/DTU/Robot_test/Robot_test/mainStateMachine.c **** //  Created by Mark Lee Malmose on 28/03/15.
   6:/Users/marklee/Documents/xcode/avr/DTU/Robot_test/Robot_test/mainStateMachine.c **** //  Copyright (c) 2015 Mark Lee Malmose. All rights reserved.
   7:/Users/marklee/Documents/xcode/avr/DTU/Robot_test/Robot_test/mainStateMachine.c **** //
   8:/Users/marklee/Documents/xcode/avr/DTU/Robot_test/Robot_test/mainStateMachine.c **** 
   9:/Users/marklee/Documents/xcode/avr/DTU/Robot_test/Robot_test/mainStateMachine.c **** #include <stdlib.h>
  10:/Users/marklee/Documents/xcode/avr/DTU/Robot_test/Robot_test/mainStateMachine.c **** #include "UART.h"
  11:/Users/marklee/Documents/xcode/avr/DTU/Robot_test/Robot_test/mainStateMachine.c **** #include "UART1.h"
  12:/Users/marklee/Documents/xcode/avr/DTU/Robot_test/Robot_test/mainStateMachine.c **** #include "lineStateMachine.h"
  13:/Users/marklee/Documents/xcode/avr/DTU/Robot_test/Robot_test/mainStateMachine.c **** #include "mainStateMachine.h"
  14:/Users/marklee/Documents/xcode/avr/DTU/Robot_test/Robot_test/mainStateMachine.c **** #include "MotorController.h"
  15:/Users/marklee/Documents/xcode/avr/DTU/Robot_test/Robot_test/mainStateMachine.c **** #include "LineSensors.h"
  16:/Users/marklee/Documents/xcode/avr/DTU/Robot_test/Robot_test/mainStateMachine.c **** #include "HC-SR04.h"
  17:/Users/marklee/Documents/xcode/avr/DTU/Robot_test/Robot_test/mainStateMachine.c **** #include <util/delay.h>
  18:/Users/marklee/Documents/xcode/avr/DTU/Robot_test/Robot_test/mainStateMachine.c **** 
  19:/Users/marklee/Documents/xcode/avr/DTU/Robot_test/Robot_test/mainStateMachine.c **** #define FORWARD 0
  20:/Users/marklee/Documents/xcode/avr/DTU/Robot_test/Robot_test/mainStateMachine.c **** #define NUDGE_LEFT 1
  21:/Users/marklee/Documents/xcode/avr/DTU/Robot_test/Robot_test/mainStateMachine.c **** #define NUDGE_RIGHT 2
  22:/Users/marklee/Documents/xcode/avr/DTU/Robot_test/Robot_test/mainStateMachine.c **** #define MEDIUM_LEFT 3
  23:/Users/marklee/Documents/xcode/avr/DTU/Robot_test/Robot_test/mainStateMachine.c **** #define MEDIUM_RIGHT 4
  24:/Users/marklee/Documents/xcode/avr/DTU/Robot_test/Robot_test/mainStateMachine.c **** #define HARD_LEFT 5
  25:/Users/marklee/Documents/xcode/avr/DTU/Robot_test/Robot_test/mainStateMachine.c **** #define HARD_RIGHT 6
  26:/Users/marklee/Documents/xcode/avr/DTU/Robot_test/Robot_test/mainStateMachine.c **** #define TURN_LEFT 7
  27:/Users/marklee/Documents/xcode/avr/DTU/Robot_test/Robot_test/mainStateMachine.c **** #define TURN_RIGHT 8
  28:/Users/marklee/Documents/xcode/avr/DTU/Robot_test/Robot_test/mainStateMachine.c **** #define TURN_LEFT_TO_LINE 9
  29:/Users/marklee/Documents/xcode/avr/DTU/Robot_test/Robot_test/mainStateMachine.c **** #define TURN_RIGHT_TO_LINE 10
  30:/Users/marklee/Documents/xcode/avr/DTU/Robot_test/Robot_test/mainStateMachine.c **** #define CIRCLE_LEFT 11
  31:/Users/marklee/Documents/xcode/avr/DTU/Robot_test/Robot_test/mainStateMachine.c **** #define CIRCLE_RIGHT 12
  32:/Users/marklee/Documents/xcode/avr/DTU/Robot_test/Robot_test/mainStateMachine.c **** #define SOFT_LEFT 13
  33:/Users/marklee/Documents/xcode/avr/DTU/Robot_test/Robot_test/mainStateMachine.c **** 
  34:/Users/marklee/Documents/xcode/avr/DTU/Robot_test/Robot_test/mainStateMachine.c **** #define LEFT 0
  35:/Users/marklee/Documents/xcode/avr/DTU/Robot_test/Robot_test/mainStateMachine.c **** #define RIGHT 1
  36:/Users/marklee/Documents/xcode/avr/DTU/Robot_test/Robot_test/mainStateMachine.c **** 
  37:/Users/marklee/Documents/xcode/avr/DTU/Robot_test/Robot_test/mainStateMachine.c **** #define FRONT_SENSOR 0
  38:/Users/marklee/Documents/xcode/avr/DTU/Robot_test/Robot_test/mainStateMachine.c **** #define SIDE_SENSOR 1
  39:/Users/marklee/Documents/xcode/avr/DTU/Robot_test/Robot_test/mainStateMachine.c **** 
  40:/Users/marklee/Documents/xcode/avr/DTU/Robot_test/Robot_test/mainStateMachine.c **** // Global variables
  41:/Users/marklee/Documents/xcode/avr/DTU/Robot_test/Robot_test/mainStateMachine.c **** extern int speed;
  42:/Users/marklee/Documents/xcode/avr/DTU/Robot_test/Robot_test/mainStateMachine.c **** extern int direction;
  43:/Users/marklee/Documents/xcode/avr/DTU/Robot_test/Robot_test/mainStateMachine.c **** 
  44:/Users/marklee/Documents/xcode/avr/DTU/Robot_test/Robot_test/mainStateMachine.c **** volatile int linecount = 0;
  45:/Users/marklee/Documents/xcode/avr/DTU/Robot_test/Robot_test/mainStateMachine.c **** char noLineChar[4];
  46:/Users/marklee/Documents/xcode/avr/DTU/Robot_test/Robot_test/mainStateMachine.c **** 
  47:/Users/marklee/Documents/xcode/avr/DTU/Robot_test/Robot_test/mainStateMachine.c **** // Sensor variables
  48:/Users/marklee/Documents/xcode/avr/DTU/Robot_test/Robot_test/mainStateMachine.c **** volatile int newLine = 0;
  49:/Users/marklee/Documents/xcode/avr/DTU/Robot_test/Robot_test/mainStateMachine.c **** volatile int prevLine = 0;
  50:/Users/marklee/Documents/xcode/avr/DTU/Robot_test/Robot_test/mainStateMachine.c **** char lineToChar[2];
  51:/Users/marklee/Documents/xcode/avr/DTU/Robot_test/Robot_test/mainStateMachine.c **** 
  52:/Users/marklee/Documents/xcode/avr/DTU/Robot_test/Robot_test/mainStateMachine.c **** volatile int newDistanceFront = 0;
  53:/Users/marklee/Documents/xcode/avr/DTU/Robot_test/Robot_test/mainStateMachine.c **** volatile int frontDistance = 0;
  54:/Users/marklee/Documents/xcode/avr/DTU/Robot_test/Robot_test/mainStateMachine.c **** volatile int prevFrontDistance = 0;
  55:/Users/marklee/Documents/xcode/avr/DTU/Robot_test/Robot_test/mainStateMachine.c **** char DistanceFrontToChar[2];
  56:/Users/marklee/Documents/xcode/avr/DTU/Robot_test/Robot_test/mainStateMachine.c **** 
  57:/Users/marklee/Documents/xcode/avr/DTU/Robot_test/Robot_test/mainStateMachine.c **** volatile int newDistanceSide = 0;
  58:/Users/marklee/Documents/xcode/avr/DTU/Robot_test/Robot_test/mainStateMachine.c **** volatile int sideDistance = 0;
  59:/Users/marklee/Documents/xcode/avr/DTU/Robot_test/Robot_test/mainStateMachine.c **** volatile int prevSideDistance = 0;
  60:/Users/marklee/Documents/xcode/avr/DTU/Robot_test/Robot_test/mainStateMachine.c **** char DistanceSideToChar[2];
  61:/Users/marklee/Documents/xcode/avr/DTU/Robot_test/Robot_test/mainStateMachine.c **** 
  62:/Users/marklee/Documents/xcode/avr/DTU/Robot_test/Robot_test/mainStateMachine.c **** volatile int tempDegrees = 0;
  63:/Users/marklee/Documents/xcode/avr/DTU/Robot_test/Robot_test/mainStateMachine.c **** 
  64:/Users/marklee/Documents/xcode/avr/DTU/Robot_test/Robot_test/mainStateMachine.c **** // Flags
  65:/Users/marklee/Documents/xcode/avr/DTU/Robot_test/Robot_test/mainStateMachine.c **** volatile int lineFoundFlag = 0;
  66:/Users/marklee/Documents/xcode/avr/DTU/Robot_test/Robot_test/mainStateMachine.c **** volatile int fullCircleDone = 0;
  67:/Users/marklee/Documents/xcode/avr/DTU/Robot_test/Robot_test/mainStateMachine.c **** volatile int highSpeedMark = 0;
  68:/Users/marklee/Documents/xcode/avr/DTU/Robot_test/Robot_test/mainStateMachine.c **** volatile int startDistance = 0;
  69:/Users/marklee/Documents/xcode/avr/DTU/Robot_test/Robot_test/mainStateMachine.c **** 
  70:/Users/marklee/Documents/xcode/avr/DTU/Robot_test/Robot_test/mainStateMachine.c **** // Statemachine variables
  71:/Users/marklee/Documents/xcode/avr/DTU/Robot_test/Robot_test/mainStateMachine.c **** volatile int wallStateMessage = 0;
  72:/Users/marklee/Documents/xcode/avr/DTU/Robot_test/Robot_test/mainStateMachine.c **** volatile int stateMessage = 0;
  73:/Users/marklee/Documents/xcode/avr/DTU/Robot_test/Robot_test/mainStateMachine.c **** 
  74:/Users/marklee/Documents/xcode/avr/DTU/Robot_test/Robot_test/mainStateMachine.c **** enum states
  75:/Users/marklee/Documents/xcode/avr/DTU/Robot_test/Robot_test/mainStateMachine.c **** {
  76:/Users/marklee/Documents/xcode/avr/DTU/Robot_test/Robot_test/mainStateMachine.c ****     FIND_LINE,
  77:/Users/marklee/Documents/xcode/avr/DTU/Robot_test/Robot_test/mainStateMachine.c ****     BEFORE_LINE_DISRUPTION,
  78:/Users/marklee/Documents/xcode/avr/DTU/Robot_test/Robot_test/mainStateMachine.c ****     LINE_DISRUPTION,
  79:/Users/marklee/Documents/xcode/avr/DTU/Robot_test/Robot_test/mainStateMachine.c ****     FULL_CIRCLE,
  80:/Users/marklee/Documents/xcode/avr/DTU/Robot_test/Robot_test/mainStateMachine.c ****     HIGH_SPEED_CURVE,
  81:/Users/marklee/Documents/xcode/avr/DTU/Robot_test/Robot_test/mainStateMachine.c ****     END_OF_LINE,
  82:/Users/marklee/Documents/xcode/avr/DTU/Robot_test/Robot_test/mainStateMachine.c ****     WALL_CORNERING,
  83:/Users/marklee/Documents/xcode/avr/DTU/Robot_test/Robot_test/mainStateMachine.c ****     FINAL_STOP
  84:/Users/marklee/Documents/xcode/avr/DTU/Robot_test/Robot_test/mainStateMachine.c **** };
  85:/Users/marklee/Documents/xcode/avr/DTU/Robot_test/Robot_test/mainStateMachine.c **** 
  86:/Users/marklee/Documents/xcode/avr/DTU/Robot_test/Robot_test/mainStateMachine.c **** enum wall_states
  87:/Users/marklee/Documents/xcode/avr/DTU/Robot_test/Robot_test/mainStateMachine.c **** {
  88:/Users/marklee/Documents/xcode/avr/DTU/Robot_test/Robot_test/mainStateMachine.c ****     FIND_WALL,
  89:/Users/marklee/Documents/xcode/avr/DTU/Robot_test/Robot_test/mainStateMachine.c ****     FIRST,
  90:/Users/marklee/Documents/xcode/avr/DTU/Robot_test/Robot_test/mainStateMachine.c ****     SECOND,
  91:/Users/marklee/Documents/xcode/avr/DTU/Robot_test/Robot_test/mainStateMachine.c ****     THIRD,
  92:/Users/marklee/Documents/xcode/avr/DTU/Robot_test/Robot_test/mainStateMachine.c ****     FOURTH,
  93:/Users/marklee/Documents/xcode/avr/DTU/Robot_test/Robot_test/mainStateMachine.c ****     STOP
  94:/Users/marklee/Documents/xcode/avr/DTU/Robot_test/Robot_test/mainStateMachine.c **** };
  95:/Users/marklee/Documents/xcode/avr/DTU/Robot_test/Robot_test/mainStateMachine.c **** 
  96:/Users/marklee/Documents/xcode/avr/DTU/Robot_test/Robot_test/mainStateMachine.c **** // Initial states
  97:/Users/marklee/Documents/xcode/avr/DTU/Robot_test/Robot_test/mainStateMachine.c **** enum states state = FIND_LINE;
  98:/Users/marklee/Documents/xcode/avr/DTU/Robot_test/Robot_test/mainStateMachine.c **** enum wall_states wall_state = FIND_WALL;
  99:/Users/marklee/Documents/xcode/avr/DTU/Robot_test/Robot_test/mainStateMachine.c **** 
 100:/Users/marklee/Documents/xcode/avr/DTU/Robot_test/Robot_test/mainStateMachine.c **** 
 101:/Users/marklee/Documents/xcode/avr/DTU/Robot_test/Robot_test/mainStateMachine.c **** 
 102:/Users/marklee/Documents/xcode/avr/DTU/Robot_test/Robot_test/mainStateMachine.c **** 
 103:/Users/marklee/Documents/xcode/avr/DTU/Robot_test/Robot_test/mainStateMachine.c **** /* ************************************************
 104:/Users/marklee/Documents/xcode/avr/DTU/Robot_test/Robot_test/mainStateMachine.c ****  *
 105:/Users/marklee/Documents/xcode/avr/DTU/Robot_test/Robot_test/mainStateMachine.c ****  * Function to send information to the PC interface
 106:/Users/marklee/Documents/xcode/avr/DTU/Robot_test/Robot_test/mainStateMachine.c ****  *
 107:/Users/marklee/Documents/xcode/avr/DTU/Robot_test/Robot_test/mainStateMachine.c ****  * @param command
 108:/Users/marklee/Documents/xcode/avr/DTU/Robot_test/Robot_test/mainStateMachine.c ****  * @param message
 109:/Users/marklee/Documents/xcode/avr/DTU/Robot_test/Robot_test/mainStateMachine.c ****  *
 110:/Users/marklee/Documents/xcode/avr/DTU/Robot_test/Robot_test/mainStateMachine.c ****  **************************************************/
 111:/Users/marklee/Documents/xcode/avr/DTU/Robot_test/Robot_test/mainStateMachine.c **** void sendUartToInterface(char command, char *message)
 112:/Users/marklee/Documents/xcode/avr/DTU/Robot_test/Robot_test/mainStateMachine.c **** {
 135               	.LM0:
 136               	.LFBB1:
 137 0000 CF93      		push r28
 138 0002 DF93      		push r29
 139               	/* prologue: function */
 140               	/* frame size = 0 */
 141               	/* stack size = 2 */
 142               	.L__stack_usage = 2
 143 0004 EB01      		movw r28,r22
 113:/Users/marklee/Documents/xcode/avr/DTU/Robot_test/Robot_test/mainStateMachine.c ****     uart_putc(command);
 145               	.LM1:
 146 0006 0E94 0000 		call uart_putc
 114:/Users/marklee/Documents/xcode/avr/DTU/Robot_test/Robot_test/mainStateMachine.c ****     uart_puts(message);
 148               	.LM2:
 149 000a CE01      		movw r24,r28
 150 000c 0E94 0000 		call uart_puts
 115:/Users/marklee/Documents/xcode/avr/DTU/Robot_test/Robot_test/mainStateMachine.c ****     uart_puts("\r\n");
 152               	.LM3:
 153 0010 80E0      		ldi r24,lo8(.LC0)
 154 0012 90E0      		ldi r25,hi8(.LC0)
 155               	/* epilogue start */
 116:/Users/marklee/Documents/xcode/avr/DTU/Robot_test/Robot_test/mainStateMachine.c **** }
 157               	.LM4:
 158 0014 DF91      		pop r29
 159 0016 CF91      		pop r28
 115:/Users/marklee/Documents/xcode/avr/DTU/Robot_test/Robot_test/mainStateMachine.c ****     uart_puts("\r\n");
 161               	.LM5:
 162 0018 0C94 0000 		jmp uart_puts
 164               	.Lscope1:
 167               	.global	sendDistanceToInterface
 169               	sendDistanceToInterface:
 117:/Users/marklee/Documents/xcode/avr/DTU/Robot_test/Robot_test/mainStateMachine.c **** 
 118:/Users/marklee/Documents/xcode/avr/DTU/Robot_test/Robot_test/mainStateMachine.c **** /* ************************************************
 119:/Users/marklee/Documents/xcode/avr/DTU/Robot_test/Robot_test/mainStateMachine.c ****  *
 120:/Users/marklee/Documents/xcode/avr/DTU/Robot_test/Robot_test/mainStateMachine.c ****  * Function to send Linesensor value to PC interface
 121:/Users/marklee/Documents/xcode/avr/DTU/Robot_test/Robot_test/mainStateMachine.c ****  *
 122:/Users/marklee/Documents/xcode/avr/DTU/Robot_test/Robot_test/mainStateMachine.c ****  **************************************************/
 123:/Users/marklee/Documents/xcode/avr/DTU/Robot_test/Robot_test/mainStateMachine.c **** void sendDistanceToInterface(int sensor)
 124:/Users/marklee/Documents/xcode/avr/DTU/Robot_test/Robot_test/mainStateMachine.c **** {
 171               	.LM6:
 172               	.LFBB2:
 173               	/* prologue: function */
 174               	/* frame size = 0 */
 175               	/* stack size = 0 */
 176               	.L__stack_usage = 0
 125:/Users/marklee/Documents/xcode/avr/DTU/Robot_test/Robot_test/mainStateMachine.c ****     if (sensor == 0)
 178               	.LM7:
 179 001c 0097      		sbiw r24,0
 180 001e 01F4      		brne .L3
 181               	.LBB44:
 182               	.LBB45:
 126:/Users/marklee/Documents/xcode/avr/DTU/Robot_test/Robot_test/mainStateMachine.c ****     {
 127:/Users/marklee/Documents/xcode/avr/DTU/Robot_test/Robot_test/mainStateMachine.c ****         newDistanceFront = HCSR04_get_distance_cm(sensor);
 184               	.LM8:
 185 0020 80E0      		ldi r24,0
 186 0022 90E0      		ldi r25,0
 187 0024 0E94 0000 		call HCSR04_get_distance_cm
 188 0028 9093 0000 		sts newDistanceFront+1,r25
 189 002c 8093 0000 		sts newDistanceFront,r24
 128:/Users/marklee/Documents/xcode/avr/DTU/Robot_test/Robot_test/mainStateMachine.c **** 
 129:/Users/marklee/Documents/xcode/avr/DTU/Robot_test/Robot_test/mainStateMachine.c ****         frontDistance = newDistanceFront;
 191               	.LM9:
 192 0030 8091 0000 		lds r24,newDistanceFront
 193 0034 9091 0000 		lds r25,newDistanceFront+1
 194 0038 9093 0000 		sts frontDistance+1,r25
 195 003c 8093 0000 		sts frontDistance,r24
 130:/Users/marklee/Documents/xcode/avr/DTU/Robot_test/Robot_test/mainStateMachine.c ****         
 131:/Users/marklee/Documents/xcode/avr/DTU/Robot_test/Robot_test/mainStateMachine.c ****         if (frontDistance != prevFrontDistance)
 197               	.LM10:
 198 0040 2091 0000 		lds r18,frontDistance
 199 0044 3091 0000 		lds r19,frontDistance+1
 200 0048 8091 0000 		lds r24,prevFrontDistance
 201 004c 9091 0000 		lds r25,prevFrontDistance+1
 202 0050 2817      		cp r18,r24
 203 0052 3907      		cpc r19,r25
 204 0054 01F0      		breq .L4
 132:/Users/marklee/Documents/xcode/avr/DTU/Robot_test/Robot_test/mainStateMachine.c ****         {
 133:/Users/marklee/Documents/xcode/avr/DTU/Robot_test/Robot_test/mainStateMachine.c ****             itoa(frontDistance, DistanceFrontToChar, 10);
 206               	.LM11:
 207 0056 8091 0000 		lds r24,frontDistance
 208 005a 9091 0000 		lds r25,frontDistance+1
 209               	.LBB46:
 210               	.LBB47:
 212               	.Ltext1:
   1:/usr/local/CrossPack-AVR-20131216/avr/include/stdlib.h **** /* Copyright (c) 2002, Marek Michalkiewicz
   2:/usr/local/CrossPack-AVR-20131216/avr/include/stdlib.h ****    Copyright (c) 2004,2007 Joerg Wunsch
   3:/usr/local/CrossPack-AVR-20131216/avr/include/stdlib.h **** 
   4:/usr/local/CrossPack-AVR-20131216/avr/include/stdlib.h ****    Portions of documentation Copyright (c) 1990, 1991, 1993, 1994
   5:/usr/local/CrossPack-AVR-20131216/avr/include/stdlib.h ****    The Regents of the University of California.
   6:/usr/local/CrossPack-AVR-20131216/avr/include/stdlib.h **** 
   7:/usr/local/CrossPack-AVR-20131216/avr/include/stdlib.h ****    All rights reserved.
   8:/usr/local/CrossPack-AVR-20131216/avr/include/stdlib.h **** 
   9:/usr/local/CrossPack-AVR-20131216/avr/include/stdlib.h ****    Redistribution and use in source and binary forms, with or without
  10:/usr/local/CrossPack-AVR-20131216/avr/include/stdlib.h ****    modification, are permitted provided that the following conditions are met:
  11:/usr/local/CrossPack-AVR-20131216/avr/include/stdlib.h **** 
  12:/usr/local/CrossPack-AVR-20131216/avr/include/stdlib.h ****    * Redistributions of source code must retain the above copyright
  13:/usr/local/CrossPack-AVR-20131216/avr/include/stdlib.h ****      notice, this list of conditions and the following disclaimer.
  14:/usr/local/CrossPack-AVR-20131216/avr/include/stdlib.h **** 
  15:/usr/local/CrossPack-AVR-20131216/avr/include/stdlib.h ****    * Redistributions in binary form must reproduce the above copyright
  16:/usr/local/CrossPack-AVR-20131216/avr/include/stdlib.h ****      notice, this list of conditions and the following disclaimer in
  17:/usr/local/CrossPack-AVR-20131216/avr/include/stdlib.h ****      the documentation and/or other materials provided with the
  18:/usr/local/CrossPack-AVR-20131216/avr/include/stdlib.h ****      distribution.
  19:/usr/local/CrossPack-AVR-20131216/avr/include/stdlib.h **** 
  20:/usr/local/CrossPack-AVR-20131216/avr/include/stdlib.h ****    * Neither the name of the copyright holders nor the names of
  21:/usr/local/CrossPack-AVR-20131216/avr/include/stdlib.h ****      contributors may be used to endorse or promote products derived
  22:/usr/local/CrossPack-AVR-20131216/avr/include/stdlib.h ****      from this software without specific prior written permission.
  23:/usr/local/CrossPack-AVR-20131216/avr/include/stdlib.h **** 
  24:/usr/local/CrossPack-AVR-20131216/avr/include/stdlib.h ****   THIS SOFTWARE IS PROVIDED BY THE COPYRIGHT HOLDERS AND CONTRIBUTORS "AS IS"
  25:/usr/local/CrossPack-AVR-20131216/avr/include/stdlib.h ****   AND ANY EXPRESS OR IMPLIED WARRANTIES, INCLUDING, BUT NOT LIMITED TO, THE
  26:/usr/local/CrossPack-AVR-20131216/avr/include/stdlib.h ****   IMPLIED WARRANTIES OF MERCHANTABILITY AND FITNESS FOR A PARTICULAR PURPOSE
  27:/usr/local/CrossPack-AVR-20131216/avr/include/stdlib.h ****   ARE DISCLAIMED. IN NO EVENT SHALL THE COPYRIGHT OWNER OR CONTRIBUTORS BE
  28:/usr/local/CrossPack-AVR-20131216/avr/include/stdlib.h ****   LIABLE FOR ANY DIRECT, INDIRECT, INCIDENTAL, SPECIAL, EXEMPLARY, OR
  29:/usr/local/CrossPack-AVR-20131216/avr/include/stdlib.h ****   CONSEQUENTIAL DAMAGES (INCLUDING, BUT NOT LIMITED TO, PROCUREMENT OF
  30:/usr/local/CrossPack-AVR-20131216/avr/include/stdlib.h ****   SUBSTITUTE GOODS OR SERVICES; LOSS OF USE, DATA, OR PROFITS; OR BUSINESS
  31:/usr/local/CrossPack-AVR-20131216/avr/include/stdlib.h ****   INTERRUPTION) HOWEVER CAUSED AND ON ANY THEORY OF LIABILITY, WHETHER IN
  32:/usr/local/CrossPack-AVR-20131216/avr/include/stdlib.h ****   CONTRACT, STRICT LIABILITY, OR TORT (INCLUDING NEGLIGENCE OR OTHERWISE)
  33:/usr/local/CrossPack-AVR-20131216/avr/include/stdlib.h ****   ARISING IN ANY WAY OUT OF THE USE OF THIS SOFTWARE, EVEN IF ADVISED OF THE
  34:/usr/local/CrossPack-AVR-20131216/avr/include/stdlib.h ****   POSSIBILITY OF SUCH DAMAGE.
  35:/usr/local/CrossPack-AVR-20131216/avr/include/stdlib.h **** 
  36:/usr/local/CrossPack-AVR-20131216/avr/include/stdlib.h ****   $Id$
  37:/usr/local/CrossPack-AVR-20131216/avr/include/stdlib.h **** */
  38:/usr/local/CrossPack-AVR-20131216/avr/include/stdlib.h **** 
  39:/usr/local/CrossPack-AVR-20131216/avr/include/stdlib.h **** #ifndef _STDLIB_H_
  40:/usr/local/CrossPack-AVR-20131216/avr/include/stdlib.h **** #define	_STDLIB_H_ 1
  41:/usr/local/CrossPack-AVR-20131216/avr/include/stdlib.h **** 
  42:/usr/local/CrossPack-AVR-20131216/avr/include/stdlib.h **** #ifndef __ASSEMBLER__
  43:/usr/local/CrossPack-AVR-20131216/avr/include/stdlib.h **** 
  44:/usr/local/CrossPack-AVR-20131216/avr/include/stdlib.h **** #define __need_NULL
  45:/usr/local/CrossPack-AVR-20131216/avr/include/stdlib.h **** #define __need_size_t
  46:/usr/local/CrossPack-AVR-20131216/avr/include/stdlib.h **** #define __need_wchar_t
  47:/usr/local/CrossPack-AVR-20131216/avr/include/stdlib.h **** #include <stddef.h>
  48:/usr/local/CrossPack-AVR-20131216/avr/include/stdlib.h **** 
  49:/usr/local/CrossPack-AVR-20131216/avr/include/stdlib.h **** #ifndef __ptr_t
  50:/usr/local/CrossPack-AVR-20131216/avr/include/stdlib.h **** #define __ptr_t void *
  51:/usr/local/CrossPack-AVR-20131216/avr/include/stdlib.h **** #endif
  52:/usr/local/CrossPack-AVR-20131216/avr/include/stdlib.h **** 
  53:/usr/local/CrossPack-AVR-20131216/avr/include/stdlib.h **** #ifdef __cplusplus
  54:/usr/local/CrossPack-AVR-20131216/avr/include/stdlib.h **** extern "C" {
  55:/usr/local/CrossPack-AVR-20131216/avr/include/stdlib.h **** #endif
  56:/usr/local/CrossPack-AVR-20131216/avr/include/stdlib.h **** 
  57:/usr/local/CrossPack-AVR-20131216/avr/include/stdlib.h **** /** \file */
  58:/usr/local/CrossPack-AVR-20131216/avr/include/stdlib.h **** 
  59:/usr/local/CrossPack-AVR-20131216/avr/include/stdlib.h **** /** \defgroup avr_stdlib <stdlib.h>: General utilities
  60:/usr/local/CrossPack-AVR-20131216/avr/include/stdlib.h ****     \code #include <stdlib.h> \endcode
  61:/usr/local/CrossPack-AVR-20131216/avr/include/stdlib.h **** 
  62:/usr/local/CrossPack-AVR-20131216/avr/include/stdlib.h ****     This file declares some basic C macros and functions as
  63:/usr/local/CrossPack-AVR-20131216/avr/include/stdlib.h ****     defined by the ISO standard, plus some AVR-specific extensions.
  64:/usr/local/CrossPack-AVR-20131216/avr/include/stdlib.h **** */
  65:/usr/local/CrossPack-AVR-20131216/avr/include/stdlib.h **** 
  66:/usr/local/CrossPack-AVR-20131216/avr/include/stdlib.h **** /*@{*/
  67:/usr/local/CrossPack-AVR-20131216/avr/include/stdlib.h **** /** Result type for function div(). */
  68:/usr/local/CrossPack-AVR-20131216/avr/include/stdlib.h **** typedef struct {
  69:/usr/local/CrossPack-AVR-20131216/avr/include/stdlib.h **** 	int quot;                   /**< The Quotient. */
  70:/usr/local/CrossPack-AVR-20131216/avr/include/stdlib.h **** 	int rem;                    /**< The Remainder. */
  71:/usr/local/CrossPack-AVR-20131216/avr/include/stdlib.h **** } div_t;
  72:/usr/local/CrossPack-AVR-20131216/avr/include/stdlib.h **** 
  73:/usr/local/CrossPack-AVR-20131216/avr/include/stdlib.h **** /** Result type for function ldiv(). */
  74:/usr/local/CrossPack-AVR-20131216/avr/include/stdlib.h **** typedef struct {
  75:/usr/local/CrossPack-AVR-20131216/avr/include/stdlib.h **** 	long quot;                  /**< The Quotient. */
  76:/usr/local/CrossPack-AVR-20131216/avr/include/stdlib.h **** 	long rem;                   /**< The Remainder. */
  77:/usr/local/CrossPack-AVR-20131216/avr/include/stdlib.h **** } ldiv_t;
  78:/usr/local/CrossPack-AVR-20131216/avr/include/stdlib.h **** 
  79:/usr/local/CrossPack-AVR-20131216/avr/include/stdlib.h **** /** Comparision function type for qsort(), just for convenience. */
  80:/usr/local/CrossPack-AVR-20131216/avr/include/stdlib.h **** typedef int (*__compar_fn_t)(const void *, const void *);
  81:/usr/local/CrossPack-AVR-20131216/avr/include/stdlib.h **** 
  82:/usr/local/CrossPack-AVR-20131216/avr/include/stdlib.h **** #ifndef __DOXYGEN__
  83:/usr/local/CrossPack-AVR-20131216/avr/include/stdlib.h **** 
  84:/usr/local/CrossPack-AVR-20131216/avr/include/stdlib.h **** #ifndef __ATTR_CONST__
  85:/usr/local/CrossPack-AVR-20131216/avr/include/stdlib.h **** # define __ATTR_CONST__ __attribute__((__const__))
  86:/usr/local/CrossPack-AVR-20131216/avr/include/stdlib.h **** #endif
  87:/usr/local/CrossPack-AVR-20131216/avr/include/stdlib.h **** 
  88:/usr/local/CrossPack-AVR-20131216/avr/include/stdlib.h **** #ifndef __ATTR_MALLOC__
  89:/usr/local/CrossPack-AVR-20131216/avr/include/stdlib.h **** # define __ATTR_MALLOC__ __attribute__((__malloc__))
  90:/usr/local/CrossPack-AVR-20131216/avr/include/stdlib.h **** #endif
  91:/usr/local/CrossPack-AVR-20131216/avr/include/stdlib.h **** 
  92:/usr/local/CrossPack-AVR-20131216/avr/include/stdlib.h **** #ifndef __ATTR_NORETURN__
  93:/usr/local/CrossPack-AVR-20131216/avr/include/stdlib.h **** # define __ATTR_NORETURN__ __attribute__((__noreturn__))
  94:/usr/local/CrossPack-AVR-20131216/avr/include/stdlib.h **** #endif
  95:/usr/local/CrossPack-AVR-20131216/avr/include/stdlib.h **** 
  96:/usr/local/CrossPack-AVR-20131216/avr/include/stdlib.h **** #ifndef __ATTR_PURE__
  97:/usr/local/CrossPack-AVR-20131216/avr/include/stdlib.h **** # define __ATTR_PURE__ __attribute__((__pure__))
  98:/usr/local/CrossPack-AVR-20131216/avr/include/stdlib.h **** #endif
  99:/usr/local/CrossPack-AVR-20131216/avr/include/stdlib.h **** 
 100:/usr/local/CrossPack-AVR-20131216/avr/include/stdlib.h **** #ifndef	__ATTR_GNU_INLINE__
 101:/usr/local/CrossPack-AVR-20131216/avr/include/stdlib.h **** # ifdef  __GNUC_STDC_INLINE__
 102:/usr/local/CrossPack-AVR-20131216/avr/include/stdlib.h **** #  define __ATTR_GNU_INLINE__   __attribute__((__gnu_inline__))
 103:/usr/local/CrossPack-AVR-20131216/avr/include/stdlib.h **** # else
 104:/usr/local/CrossPack-AVR-20131216/avr/include/stdlib.h **** #  define __ATTR_GNU_INLINE__
 105:/usr/local/CrossPack-AVR-20131216/avr/include/stdlib.h **** # endif
 106:/usr/local/CrossPack-AVR-20131216/avr/include/stdlib.h **** #endif
 107:/usr/local/CrossPack-AVR-20131216/avr/include/stdlib.h **** 
 108:/usr/local/CrossPack-AVR-20131216/avr/include/stdlib.h **** #endif
 109:/usr/local/CrossPack-AVR-20131216/avr/include/stdlib.h **** 
 110:/usr/local/CrossPack-AVR-20131216/avr/include/stdlib.h **** /** The abort() function causes abnormal program termination to occur.
 111:/usr/local/CrossPack-AVR-20131216/avr/include/stdlib.h ****     This realization disables interrupts and jumps to _exit() function
 112:/usr/local/CrossPack-AVR-20131216/avr/include/stdlib.h ****     with argument equal to 1. In the limited AVR environment, execution is
 113:/usr/local/CrossPack-AVR-20131216/avr/include/stdlib.h ****     effectively halted by entering an infinite loop. */
 114:/usr/local/CrossPack-AVR-20131216/avr/include/stdlib.h **** extern void abort(void) __ATTR_NORETURN__;
 115:/usr/local/CrossPack-AVR-20131216/avr/include/stdlib.h **** 
 116:/usr/local/CrossPack-AVR-20131216/avr/include/stdlib.h **** /** The abs() function computes the absolute value of the integer \c i.
 117:/usr/local/CrossPack-AVR-20131216/avr/include/stdlib.h ****    \note The abs() and labs() functions are builtins of gcc.
 118:/usr/local/CrossPack-AVR-20131216/avr/include/stdlib.h **** */
 119:/usr/local/CrossPack-AVR-20131216/avr/include/stdlib.h **** extern int abs(int __i) __ATTR_CONST__;
 120:/usr/local/CrossPack-AVR-20131216/avr/include/stdlib.h **** #ifndef __DOXYGEN__
 121:/usr/local/CrossPack-AVR-20131216/avr/include/stdlib.h **** #define	abs(__i) __builtin_abs(__i)
 122:/usr/local/CrossPack-AVR-20131216/avr/include/stdlib.h **** #endif
 123:/usr/local/CrossPack-AVR-20131216/avr/include/stdlib.h **** 
 124:/usr/local/CrossPack-AVR-20131216/avr/include/stdlib.h **** /** The labs() function computes the absolute value of the long integer
 125:/usr/local/CrossPack-AVR-20131216/avr/include/stdlib.h ****     \c i.
 126:/usr/local/CrossPack-AVR-20131216/avr/include/stdlib.h ****    \note The abs() and labs() functions are builtins of gcc.
 127:/usr/local/CrossPack-AVR-20131216/avr/include/stdlib.h **** */
 128:/usr/local/CrossPack-AVR-20131216/avr/include/stdlib.h **** extern long labs(long __i) __ATTR_CONST__;
 129:/usr/local/CrossPack-AVR-20131216/avr/include/stdlib.h **** #ifndef __DOXYGEN__
 130:/usr/local/CrossPack-AVR-20131216/avr/include/stdlib.h **** #define labs(__i) __builtin_labs(__i)
 131:/usr/local/CrossPack-AVR-20131216/avr/include/stdlib.h **** #endif
 132:/usr/local/CrossPack-AVR-20131216/avr/include/stdlib.h **** 
 133:/usr/local/CrossPack-AVR-20131216/avr/include/stdlib.h **** /**
 134:/usr/local/CrossPack-AVR-20131216/avr/include/stdlib.h ****      The bsearch() function searches an array of \c nmemb objects, the
 135:/usr/local/CrossPack-AVR-20131216/avr/include/stdlib.h ****      initial member of which is pointed to by \c base, for a member
 136:/usr/local/CrossPack-AVR-20131216/avr/include/stdlib.h ****      that matches the object pointed to by \c key.  The size of each
 137:/usr/local/CrossPack-AVR-20131216/avr/include/stdlib.h ****      member of the array is specified by \c size.
 138:/usr/local/CrossPack-AVR-20131216/avr/include/stdlib.h **** 
 139:/usr/local/CrossPack-AVR-20131216/avr/include/stdlib.h ****      The contents of the array should be in ascending sorted order
 140:/usr/local/CrossPack-AVR-20131216/avr/include/stdlib.h ****      according to the comparison function referenced by \c compar.
 141:/usr/local/CrossPack-AVR-20131216/avr/include/stdlib.h ****      The \c compar routine is expected to have two arguments which
 142:/usr/local/CrossPack-AVR-20131216/avr/include/stdlib.h ****      point to the key object and to an array member, in that order,
 143:/usr/local/CrossPack-AVR-20131216/avr/include/stdlib.h ****      and should return an integer less than, equal to, or greater than
 144:/usr/local/CrossPack-AVR-20131216/avr/include/stdlib.h ****      zero if the key object is found, respectively, to be less than,
 145:/usr/local/CrossPack-AVR-20131216/avr/include/stdlib.h ****      to match, or be greater than the array member.
 146:/usr/local/CrossPack-AVR-20131216/avr/include/stdlib.h **** 
 147:/usr/local/CrossPack-AVR-20131216/avr/include/stdlib.h ****      The bsearch() function returns a pointer to a matching member of
 148:/usr/local/CrossPack-AVR-20131216/avr/include/stdlib.h ****      the array, or a null pointer if no match is found.  If two
 149:/usr/local/CrossPack-AVR-20131216/avr/include/stdlib.h ****      members compare as equal, which member is matched is unspecified.
 150:/usr/local/CrossPack-AVR-20131216/avr/include/stdlib.h **** */
 151:/usr/local/CrossPack-AVR-20131216/avr/include/stdlib.h **** extern void *bsearch(const void *__key, const void *__base, size_t __nmemb,
 152:/usr/local/CrossPack-AVR-20131216/avr/include/stdlib.h **** 		     size_t __size, int (*__compar)(const void *, const void *));
 153:/usr/local/CrossPack-AVR-20131216/avr/include/stdlib.h **** 
 154:/usr/local/CrossPack-AVR-20131216/avr/include/stdlib.h **** /* __divmodhi4 and __divmodsi4 from libgcc.a */
 155:/usr/local/CrossPack-AVR-20131216/avr/include/stdlib.h **** /**
 156:/usr/local/CrossPack-AVR-20131216/avr/include/stdlib.h ****      The div() function computes the value \c num/denom and returns
 157:/usr/local/CrossPack-AVR-20131216/avr/include/stdlib.h ****      the quotient and remainder in a structure named \c div_t that
 158:/usr/local/CrossPack-AVR-20131216/avr/include/stdlib.h ****      contains two int members named \c quot and \c rem.
 159:/usr/local/CrossPack-AVR-20131216/avr/include/stdlib.h **** */
 160:/usr/local/CrossPack-AVR-20131216/avr/include/stdlib.h **** extern div_t div(int __num, int __denom) __asm__("__divmodhi4") __ATTR_CONST__;
 161:/usr/local/CrossPack-AVR-20131216/avr/include/stdlib.h **** /**
 162:/usr/local/CrossPack-AVR-20131216/avr/include/stdlib.h ****      The ldiv() function computes the value \c num/denom and returns
 163:/usr/local/CrossPack-AVR-20131216/avr/include/stdlib.h ****      the quotient and remainder in a structure named \c ldiv_t that
 164:/usr/local/CrossPack-AVR-20131216/avr/include/stdlib.h ****      contains two long integer members named \c quot and \c rem.
 165:/usr/local/CrossPack-AVR-20131216/avr/include/stdlib.h **** */
 166:/usr/local/CrossPack-AVR-20131216/avr/include/stdlib.h **** extern ldiv_t ldiv(long __num, long __denom) __asm__("__divmodsi4") __ATTR_CONST__;
 167:/usr/local/CrossPack-AVR-20131216/avr/include/stdlib.h **** 
 168:/usr/local/CrossPack-AVR-20131216/avr/include/stdlib.h **** /**
 169:/usr/local/CrossPack-AVR-20131216/avr/include/stdlib.h ****      The qsort() function is a modified partition-exchange sort, or
 170:/usr/local/CrossPack-AVR-20131216/avr/include/stdlib.h ****      quicksort.
 171:/usr/local/CrossPack-AVR-20131216/avr/include/stdlib.h **** 
 172:/usr/local/CrossPack-AVR-20131216/avr/include/stdlib.h ****      The qsort() function sorts an array of \c nmemb objects, the
 173:/usr/local/CrossPack-AVR-20131216/avr/include/stdlib.h ****      initial member of which is pointed to by \c base.  The size of
 174:/usr/local/CrossPack-AVR-20131216/avr/include/stdlib.h ****      each object is specified by \c size.  The contents of the array
 175:/usr/local/CrossPack-AVR-20131216/avr/include/stdlib.h ****      base are sorted in ascending order according to a comparison
 176:/usr/local/CrossPack-AVR-20131216/avr/include/stdlib.h ****      function pointed to by \c compar, which requires two arguments
 177:/usr/local/CrossPack-AVR-20131216/avr/include/stdlib.h ****      pointing to the objects being compared.
 178:/usr/local/CrossPack-AVR-20131216/avr/include/stdlib.h **** 
 179:/usr/local/CrossPack-AVR-20131216/avr/include/stdlib.h ****      The comparison function must return an integer less than, equal
 180:/usr/local/CrossPack-AVR-20131216/avr/include/stdlib.h ****      to, or greater than zero if the first argument is considered to
 181:/usr/local/CrossPack-AVR-20131216/avr/include/stdlib.h ****      be respectively less than, equal to, or greater than the second.
 182:/usr/local/CrossPack-AVR-20131216/avr/include/stdlib.h **** */
 183:/usr/local/CrossPack-AVR-20131216/avr/include/stdlib.h **** extern void qsort(void *__base, size_t __nmemb, size_t __size,
 184:/usr/local/CrossPack-AVR-20131216/avr/include/stdlib.h **** 		  __compar_fn_t __compar);
 185:/usr/local/CrossPack-AVR-20131216/avr/include/stdlib.h **** 
 186:/usr/local/CrossPack-AVR-20131216/avr/include/stdlib.h **** /**
 187:/usr/local/CrossPack-AVR-20131216/avr/include/stdlib.h ****     The strtol() function converts the string in \c nptr to a long
 188:/usr/local/CrossPack-AVR-20131216/avr/include/stdlib.h ****     value.  The conversion is done according to the given base, which
 189:/usr/local/CrossPack-AVR-20131216/avr/include/stdlib.h ****     must be between 2 and 36 inclusive, or be the special value 0.
 190:/usr/local/CrossPack-AVR-20131216/avr/include/stdlib.h **** 
 191:/usr/local/CrossPack-AVR-20131216/avr/include/stdlib.h ****     The string may begin with an arbitrary amount of white space (as
 192:/usr/local/CrossPack-AVR-20131216/avr/include/stdlib.h ****     determined by isspace()) followed by a single optional \c '+' or \c '-'
 193:/usr/local/CrossPack-AVR-20131216/avr/include/stdlib.h ****     sign.  If \c base is zero or 16, the string may then include a
 194:/usr/local/CrossPack-AVR-20131216/avr/include/stdlib.h ****     \c "0x" prefix, and the number will be read in base 16; otherwise,
 195:/usr/local/CrossPack-AVR-20131216/avr/include/stdlib.h ****     a zero base is taken as 10 (decimal) unless the next character is
 196:/usr/local/CrossPack-AVR-20131216/avr/include/stdlib.h ****     \c '0', in which case it is taken as 8 (octal).
 197:/usr/local/CrossPack-AVR-20131216/avr/include/stdlib.h **** 
 198:/usr/local/CrossPack-AVR-20131216/avr/include/stdlib.h ****     The remainder of the string is converted to a long value in the
 199:/usr/local/CrossPack-AVR-20131216/avr/include/stdlib.h ****     obvious manner, stopping at the first character which is not a
 200:/usr/local/CrossPack-AVR-20131216/avr/include/stdlib.h ****     valid digit in the given base.  (In bases above 10, the letter \c 'A'
 201:/usr/local/CrossPack-AVR-20131216/avr/include/stdlib.h ****     in either upper or lower case represents 10, \c 'B' represents 11,
 202:/usr/local/CrossPack-AVR-20131216/avr/include/stdlib.h ****     and so forth, with \c 'Z' representing 35.)
 203:/usr/local/CrossPack-AVR-20131216/avr/include/stdlib.h **** 
 204:/usr/local/CrossPack-AVR-20131216/avr/include/stdlib.h ****     If \c endptr is not NULL, strtol() stores the address of the first
 205:/usr/local/CrossPack-AVR-20131216/avr/include/stdlib.h ****     invalid character in \c *endptr.  If there were no digits at all,
 206:/usr/local/CrossPack-AVR-20131216/avr/include/stdlib.h ****     however, strtol() stores the original value of \c nptr in \c
 207:/usr/local/CrossPack-AVR-20131216/avr/include/stdlib.h ****     *endptr.  (Thus, if \c *nptr is not \c '\\0' but \c **endptr is \c '\\0'
 208:/usr/local/CrossPack-AVR-20131216/avr/include/stdlib.h ****     on return, the entire string was valid.)
 209:/usr/local/CrossPack-AVR-20131216/avr/include/stdlib.h **** 
 210:/usr/local/CrossPack-AVR-20131216/avr/include/stdlib.h ****     The strtol() function returns the result of the conversion, unless
 211:/usr/local/CrossPack-AVR-20131216/avr/include/stdlib.h ****     the value would underflow or overflow.  If no conversion could be
 212:/usr/local/CrossPack-AVR-20131216/avr/include/stdlib.h ****     performed, 0 is returned.  If an overflow or underflow occurs, \c
 213:/usr/local/CrossPack-AVR-20131216/avr/include/stdlib.h ****     errno is set to \ref avr_errno "ERANGE" and the function return value
 214:/usr/local/CrossPack-AVR-20131216/avr/include/stdlib.h ****     is clamped to \c LONG_MIN or \c LONG_MAX, respectively.
 215:/usr/local/CrossPack-AVR-20131216/avr/include/stdlib.h **** */
 216:/usr/local/CrossPack-AVR-20131216/avr/include/stdlib.h **** extern long strtol(const char *__nptr, char **__endptr, int __base);
 217:/usr/local/CrossPack-AVR-20131216/avr/include/stdlib.h **** 
 218:/usr/local/CrossPack-AVR-20131216/avr/include/stdlib.h **** /**
 219:/usr/local/CrossPack-AVR-20131216/avr/include/stdlib.h ****     The strtoul() function converts the string in \c nptr to an
 220:/usr/local/CrossPack-AVR-20131216/avr/include/stdlib.h ****     unsigned long value.  The conversion is done according to the
 221:/usr/local/CrossPack-AVR-20131216/avr/include/stdlib.h ****     given base, which must be between 2 and 36 inclusive, or be the
 222:/usr/local/CrossPack-AVR-20131216/avr/include/stdlib.h ****     special value 0.
 223:/usr/local/CrossPack-AVR-20131216/avr/include/stdlib.h **** 
 224:/usr/local/CrossPack-AVR-20131216/avr/include/stdlib.h ****     The string may begin with an arbitrary amount of white space (as
 225:/usr/local/CrossPack-AVR-20131216/avr/include/stdlib.h ****     determined by isspace()) followed by a single optional \c '+' or \c '-'
 226:/usr/local/CrossPack-AVR-20131216/avr/include/stdlib.h ****     sign.  If \c base is zero or 16, the string may then include a
 227:/usr/local/CrossPack-AVR-20131216/avr/include/stdlib.h ****     \c "0x" prefix, and the number will be read in base 16; otherwise,
 228:/usr/local/CrossPack-AVR-20131216/avr/include/stdlib.h ****     a zero base is taken as 10 (decimal) unless the next character is
 229:/usr/local/CrossPack-AVR-20131216/avr/include/stdlib.h ****     \c '0', in which case it is taken as 8 (octal).
 230:/usr/local/CrossPack-AVR-20131216/avr/include/stdlib.h **** 
 231:/usr/local/CrossPack-AVR-20131216/avr/include/stdlib.h ****     The remainder of the string is converted to an unsigned long value
 232:/usr/local/CrossPack-AVR-20131216/avr/include/stdlib.h ****     in the obvious manner, stopping at the first character which is
 233:/usr/local/CrossPack-AVR-20131216/avr/include/stdlib.h ****     not a valid digit in the given base.  (In bases above 10, the
 234:/usr/local/CrossPack-AVR-20131216/avr/include/stdlib.h ****     letter \c 'A' in either upper or lower case represents 10, \c 'B'
 235:/usr/local/CrossPack-AVR-20131216/avr/include/stdlib.h ****     represents 11, and so forth, with \c 'Z' representing 35.)
 236:/usr/local/CrossPack-AVR-20131216/avr/include/stdlib.h **** 
 237:/usr/local/CrossPack-AVR-20131216/avr/include/stdlib.h ****     If \c endptr is not NULL, strtoul() stores the address of the first
 238:/usr/local/CrossPack-AVR-20131216/avr/include/stdlib.h ****     invalid character in \c *endptr.  If there were no digits at all,
 239:/usr/local/CrossPack-AVR-20131216/avr/include/stdlib.h ****     however, strtoul() stores the original value of \c nptr in \c
 240:/usr/local/CrossPack-AVR-20131216/avr/include/stdlib.h ****     *endptr.  (Thus, if \c *nptr is not \c '\\0' but \c **endptr is \c '\\0'
 241:/usr/local/CrossPack-AVR-20131216/avr/include/stdlib.h ****     on return, the entire string was valid.)
 242:/usr/local/CrossPack-AVR-20131216/avr/include/stdlib.h **** 
 243:/usr/local/CrossPack-AVR-20131216/avr/include/stdlib.h ****     The strtoul() function return either the result of the conversion
 244:/usr/local/CrossPack-AVR-20131216/avr/include/stdlib.h ****     or, if there was a leading minus sign, the negation of the result
 245:/usr/local/CrossPack-AVR-20131216/avr/include/stdlib.h ****     of the conversion, unless the original (non-negated) value would
 246:/usr/local/CrossPack-AVR-20131216/avr/include/stdlib.h ****     overflow; in the latter case, strtoul() returns ULONG_MAX, and \c
 247:/usr/local/CrossPack-AVR-20131216/avr/include/stdlib.h ****     errno is set to \ref avr_errno "ERANGE".  If no conversion could 
 248:/usr/local/CrossPack-AVR-20131216/avr/include/stdlib.h ****     be performed, 0 is returned.
 249:/usr/local/CrossPack-AVR-20131216/avr/include/stdlib.h **** */
 250:/usr/local/CrossPack-AVR-20131216/avr/include/stdlib.h **** extern unsigned long strtoul(const char *__nptr, char **__endptr, int __base);
 251:/usr/local/CrossPack-AVR-20131216/avr/include/stdlib.h **** 
 252:/usr/local/CrossPack-AVR-20131216/avr/include/stdlib.h **** /**
 253:/usr/local/CrossPack-AVR-20131216/avr/include/stdlib.h ****     The atol() function converts the initial portion of the string
 254:/usr/local/CrossPack-AVR-20131216/avr/include/stdlib.h ****     pointed to by \p s to long integer representation. In contrast to
 255:/usr/local/CrossPack-AVR-20131216/avr/include/stdlib.h **** 
 256:/usr/local/CrossPack-AVR-20131216/avr/include/stdlib.h ****         \code strtol(s, (char **)NULL, 10); \endcode
 257:/usr/local/CrossPack-AVR-20131216/avr/include/stdlib.h **** 
 258:/usr/local/CrossPack-AVR-20131216/avr/include/stdlib.h ****     this function does not detect overflow (\c errno is not changed and
 259:/usr/local/CrossPack-AVR-20131216/avr/include/stdlib.h ****     the result value is not predictable), uses smaller memory (flash and
 260:/usr/local/CrossPack-AVR-20131216/avr/include/stdlib.h ****     stack) and works more quickly.
 261:/usr/local/CrossPack-AVR-20131216/avr/include/stdlib.h **** */
 262:/usr/local/CrossPack-AVR-20131216/avr/include/stdlib.h **** extern long atol(const char *__s) __ATTR_PURE__;
 263:/usr/local/CrossPack-AVR-20131216/avr/include/stdlib.h **** 
 264:/usr/local/CrossPack-AVR-20131216/avr/include/stdlib.h **** /**
 265:/usr/local/CrossPack-AVR-20131216/avr/include/stdlib.h ****     The atoi() function converts the initial portion of the string
 266:/usr/local/CrossPack-AVR-20131216/avr/include/stdlib.h ****     pointed to by \p s to integer representation. In contrast to
 267:/usr/local/CrossPack-AVR-20131216/avr/include/stdlib.h **** 
 268:/usr/local/CrossPack-AVR-20131216/avr/include/stdlib.h ****         \code (int)strtol(s, (char **)NULL, 10); \endcode
 269:/usr/local/CrossPack-AVR-20131216/avr/include/stdlib.h **** 
 270:/usr/local/CrossPack-AVR-20131216/avr/include/stdlib.h ****     this function does not detect overflow (\c errno is not changed and
 271:/usr/local/CrossPack-AVR-20131216/avr/include/stdlib.h ****     the result value is not predictable), uses smaller memory (flash and
 272:/usr/local/CrossPack-AVR-20131216/avr/include/stdlib.h ****     stack) and works more quickly.
 273:/usr/local/CrossPack-AVR-20131216/avr/include/stdlib.h **** */
 274:/usr/local/CrossPack-AVR-20131216/avr/include/stdlib.h **** extern int atoi(const char *__s) __ATTR_PURE__;
 275:/usr/local/CrossPack-AVR-20131216/avr/include/stdlib.h **** 
 276:/usr/local/CrossPack-AVR-20131216/avr/include/stdlib.h **** /**
 277:/usr/local/CrossPack-AVR-20131216/avr/include/stdlib.h ****    The exit() function terminates the application.  Since there is no
 278:/usr/local/CrossPack-AVR-20131216/avr/include/stdlib.h ****    environment to return to, \c status is ignored, and code execution
 279:/usr/local/CrossPack-AVR-20131216/avr/include/stdlib.h ****    will eventually reach an infinite loop, thereby effectively halting
 280:/usr/local/CrossPack-AVR-20131216/avr/include/stdlib.h ****    all code processing.  Before entering the infinite loop, interrupts
 281:/usr/local/CrossPack-AVR-20131216/avr/include/stdlib.h ****    are globally disabled.
 282:/usr/local/CrossPack-AVR-20131216/avr/include/stdlib.h **** 
 283:/usr/local/CrossPack-AVR-20131216/avr/include/stdlib.h ****    In a C++ context, global destructors will be called before halting
 284:/usr/local/CrossPack-AVR-20131216/avr/include/stdlib.h ****    execution.
 285:/usr/local/CrossPack-AVR-20131216/avr/include/stdlib.h **** */
 286:/usr/local/CrossPack-AVR-20131216/avr/include/stdlib.h **** extern void exit(int __status) __ATTR_NORETURN__;
 287:/usr/local/CrossPack-AVR-20131216/avr/include/stdlib.h **** 
 288:/usr/local/CrossPack-AVR-20131216/avr/include/stdlib.h **** /**
 289:/usr/local/CrossPack-AVR-20131216/avr/include/stdlib.h ****    The malloc() function allocates \c size bytes of memory.
 290:/usr/local/CrossPack-AVR-20131216/avr/include/stdlib.h ****    If malloc() fails, a NULL pointer is returned.
 291:/usr/local/CrossPack-AVR-20131216/avr/include/stdlib.h **** 
 292:/usr/local/CrossPack-AVR-20131216/avr/include/stdlib.h ****    Note that malloc() does \e not initialize the returned memory to
 293:/usr/local/CrossPack-AVR-20131216/avr/include/stdlib.h ****    zero bytes.
 294:/usr/local/CrossPack-AVR-20131216/avr/include/stdlib.h **** 
 295:/usr/local/CrossPack-AVR-20131216/avr/include/stdlib.h ****    See the chapter about \ref malloc "malloc() usage" for implementation
 296:/usr/local/CrossPack-AVR-20131216/avr/include/stdlib.h ****    details.
 297:/usr/local/CrossPack-AVR-20131216/avr/include/stdlib.h **** */
 298:/usr/local/CrossPack-AVR-20131216/avr/include/stdlib.h **** extern void *malloc(size_t __size) __ATTR_MALLOC__;
 299:/usr/local/CrossPack-AVR-20131216/avr/include/stdlib.h **** 
 300:/usr/local/CrossPack-AVR-20131216/avr/include/stdlib.h **** /**
 301:/usr/local/CrossPack-AVR-20131216/avr/include/stdlib.h ****    The free() function causes the allocated memory referenced by \c
 302:/usr/local/CrossPack-AVR-20131216/avr/include/stdlib.h ****    ptr to be made available for future allocations.  If \c ptr is
 303:/usr/local/CrossPack-AVR-20131216/avr/include/stdlib.h ****    NULL, no action occurs.
 304:/usr/local/CrossPack-AVR-20131216/avr/include/stdlib.h **** */
 305:/usr/local/CrossPack-AVR-20131216/avr/include/stdlib.h **** extern void free(void *__ptr);
 306:/usr/local/CrossPack-AVR-20131216/avr/include/stdlib.h **** 
 307:/usr/local/CrossPack-AVR-20131216/avr/include/stdlib.h **** /**
 308:/usr/local/CrossPack-AVR-20131216/avr/include/stdlib.h ****    \c malloc() \ref malloc_tunables "tunable".
 309:/usr/local/CrossPack-AVR-20131216/avr/include/stdlib.h **** */
 310:/usr/local/CrossPack-AVR-20131216/avr/include/stdlib.h **** extern size_t __malloc_margin;
 311:/usr/local/CrossPack-AVR-20131216/avr/include/stdlib.h **** 
 312:/usr/local/CrossPack-AVR-20131216/avr/include/stdlib.h **** /**
 313:/usr/local/CrossPack-AVR-20131216/avr/include/stdlib.h ****    \c malloc() \ref malloc_tunables "tunable".
 314:/usr/local/CrossPack-AVR-20131216/avr/include/stdlib.h **** */
 315:/usr/local/CrossPack-AVR-20131216/avr/include/stdlib.h **** extern char *__malloc_heap_start;
 316:/usr/local/CrossPack-AVR-20131216/avr/include/stdlib.h **** 
 317:/usr/local/CrossPack-AVR-20131216/avr/include/stdlib.h **** /**
 318:/usr/local/CrossPack-AVR-20131216/avr/include/stdlib.h ****    \c malloc() \ref malloc_tunables "tunable".
 319:/usr/local/CrossPack-AVR-20131216/avr/include/stdlib.h **** */
 320:/usr/local/CrossPack-AVR-20131216/avr/include/stdlib.h **** extern char *__malloc_heap_end;
 321:/usr/local/CrossPack-AVR-20131216/avr/include/stdlib.h **** 
 322:/usr/local/CrossPack-AVR-20131216/avr/include/stdlib.h **** /**
 323:/usr/local/CrossPack-AVR-20131216/avr/include/stdlib.h ****    Allocate \c nele elements of \c size each.  Identical to calling
 324:/usr/local/CrossPack-AVR-20131216/avr/include/stdlib.h ****    \c malloc() using <tt>nele * size</tt> as argument, except the
 325:/usr/local/CrossPack-AVR-20131216/avr/include/stdlib.h ****    allocated memory will be cleared to zero.
 326:/usr/local/CrossPack-AVR-20131216/avr/include/stdlib.h **** */
 327:/usr/local/CrossPack-AVR-20131216/avr/include/stdlib.h **** extern void *calloc(size_t __nele, size_t __size) __ATTR_MALLOC__;
 328:/usr/local/CrossPack-AVR-20131216/avr/include/stdlib.h **** 
 329:/usr/local/CrossPack-AVR-20131216/avr/include/stdlib.h **** /**
 330:/usr/local/CrossPack-AVR-20131216/avr/include/stdlib.h ****    The realloc() function tries to change the size of the region
 331:/usr/local/CrossPack-AVR-20131216/avr/include/stdlib.h ****    allocated at \c ptr to the new \c size value.  It returns a
 332:/usr/local/CrossPack-AVR-20131216/avr/include/stdlib.h ****    pointer to the new region.  The returned pointer might be the
 333:/usr/local/CrossPack-AVR-20131216/avr/include/stdlib.h ****    same as the old pointer, or a pointer to a completely different
 334:/usr/local/CrossPack-AVR-20131216/avr/include/stdlib.h ****    region.
 335:/usr/local/CrossPack-AVR-20131216/avr/include/stdlib.h **** 
 336:/usr/local/CrossPack-AVR-20131216/avr/include/stdlib.h ****    The contents of the returned region up to either the old or the new
 337:/usr/local/CrossPack-AVR-20131216/avr/include/stdlib.h ****    size value (whatever is less) will be identical to the contents of
 338:/usr/local/CrossPack-AVR-20131216/avr/include/stdlib.h ****    the old region, even in case a new region had to be allocated.
 339:/usr/local/CrossPack-AVR-20131216/avr/include/stdlib.h **** 
 340:/usr/local/CrossPack-AVR-20131216/avr/include/stdlib.h ****    It is acceptable to pass \c ptr as NULL, in which case realloc()
 341:/usr/local/CrossPack-AVR-20131216/avr/include/stdlib.h ****    will behave identical to malloc().
 342:/usr/local/CrossPack-AVR-20131216/avr/include/stdlib.h **** 
 343:/usr/local/CrossPack-AVR-20131216/avr/include/stdlib.h ****    If the new memory cannot be allocated, realloc() returns NULL, and
 344:/usr/local/CrossPack-AVR-20131216/avr/include/stdlib.h ****    the region at \c ptr will not be changed.
 345:/usr/local/CrossPack-AVR-20131216/avr/include/stdlib.h **** */
 346:/usr/local/CrossPack-AVR-20131216/avr/include/stdlib.h **** extern void *realloc(void *__ptr, size_t __size) __ATTR_MALLOC__;
 347:/usr/local/CrossPack-AVR-20131216/avr/include/stdlib.h **** 
 348:/usr/local/CrossPack-AVR-20131216/avr/include/stdlib.h **** extern double strtod(const char *__nptr, char **__endptr);
 349:/usr/local/CrossPack-AVR-20131216/avr/include/stdlib.h **** 
 350:/usr/local/CrossPack-AVR-20131216/avr/include/stdlib.h **** extern double atof(const char *__nptr);
 351:/usr/local/CrossPack-AVR-20131216/avr/include/stdlib.h **** 
 352:/usr/local/CrossPack-AVR-20131216/avr/include/stdlib.h **** /** Highest number that can be generated by rand(). */
 353:/usr/local/CrossPack-AVR-20131216/avr/include/stdlib.h **** #define	RAND_MAX 0x7FFF
 354:/usr/local/CrossPack-AVR-20131216/avr/include/stdlib.h **** 
 355:/usr/local/CrossPack-AVR-20131216/avr/include/stdlib.h **** /**
 356:/usr/local/CrossPack-AVR-20131216/avr/include/stdlib.h ****      The rand() function computes a sequence of pseudo-random integers in the
 357:/usr/local/CrossPack-AVR-20131216/avr/include/stdlib.h ****      range of 0 to \c RAND_MAX (as defined by the header file <stdlib.h>).
 358:/usr/local/CrossPack-AVR-20131216/avr/include/stdlib.h **** 
 359:/usr/local/CrossPack-AVR-20131216/avr/include/stdlib.h ****      The srand() function sets its argument \c seed as the seed for a new
 360:/usr/local/CrossPack-AVR-20131216/avr/include/stdlib.h ****      sequence of pseudo-random numbers to be returned by rand().  These
 361:/usr/local/CrossPack-AVR-20131216/avr/include/stdlib.h ****      sequences are repeatable by calling srand() with the same seed value.
 362:/usr/local/CrossPack-AVR-20131216/avr/include/stdlib.h **** 
 363:/usr/local/CrossPack-AVR-20131216/avr/include/stdlib.h ****      If no seed value is provided, the functions are automatically seeded with
 364:/usr/local/CrossPack-AVR-20131216/avr/include/stdlib.h ****      a value of 1.
 365:/usr/local/CrossPack-AVR-20131216/avr/include/stdlib.h **** 
 366:/usr/local/CrossPack-AVR-20131216/avr/include/stdlib.h ****      In compliance with the C standard, these functions operate on
 367:/usr/local/CrossPack-AVR-20131216/avr/include/stdlib.h ****      \c int arguments.  Since the underlying algorithm already uses
 368:/usr/local/CrossPack-AVR-20131216/avr/include/stdlib.h ****      32-bit calculations, this causes a loss of precision.  See
 369:/usr/local/CrossPack-AVR-20131216/avr/include/stdlib.h ****      \c random() for an alternate set of functions that retains full
 370:/usr/local/CrossPack-AVR-20131216/avr/include/stdlib.h ****      32-bit precision.
 371:/usr/local/CrossPack-AVR-20131216/avr/include/stdlib.h **** */
 372:/usr/local/CrossPack-AVR-20131216/avr/include/stdlib.h **** extern int rand(void);
 373:/usr/local/CrossPack-AVR-20131216/avr/include/stdlib.h **** /**
 374:/usr/local/CrossPack-AVR-20131216/avr/include/stdlib.h ****    Pseudo-random number generator seeding; see rand().
 375:/usr/local/CrossPack-AVR-20131216/avr/include/stdlib.h **** */
 376:/usr/local/CrossPack-AVR-20131216/avr/include/stdlib.h **** extern void srand(unsigned int __seed);
 377:/usr/local/CrossPack-AVR-20131216/avr/include/stdlib.h **** 
 378:/usr/local/CrossPack-AVR-20131216/avr/include/stdlib.h **** /**
 379:/usr/local/CrossPack-AVR-20131216/avr/include/stdlib.h ****    Variant of rand() that stores the context in the user-supplied
 380:/usr/local/CrossPack-AVR-20131216/avr/include/stdlib.h ****    variable located at \c ctx instead of a static library variable
 381:/usr/local/CrossPack-AVR-20131216/avr/include/stdlib.h ****    so the function becomes re-entrant.
 382:/usr/local/CrossPack-AVR-20131216/avr/include/stdlib.h **** */
 383:/usr/local/CrossPack-AVR-20131216/avr/include/stdlib.h **** extern int rand_r(unsigned long *__ctx);
 384:/usr/local/CrossPack-AVR-20131216/avr/include/stdlib.h **** /*@}*/
 385:/usr/local/CrossPack-AVR-20131216/avr/include/stdlib.h **** 
 386:/usr/local/CrossPack-AVR-20131216/avr/include/stdlib.h **** /*@{*/
 387:/usr/local/CrossPack-AVR-20131216/avr/include/stdlib.h **** /** \name Non-standard (i.e. non-ISO C) functions.
 388:/usr/local/CrossPack-AVR-20131216/avr/include/stdlib.h ****  \ingroup avr_stdlib
 389:/usr/local/CrossPack-AVR-20131216/avr/include/stdlib.h **** */
 390:/usr/local/CrossPack-AVR-20131216/avr/include/stdlib.h **** /**
 391:/usr/local/CrossPack-AVR-20131216/avr/include/stdlib.h ****    \brief Convert an integer to a string.
 392:/usr/local/CrossPack-AVR-20131216/avr/include/stdlib.h **** 
 393:/usr/local/CrossPack-AVR-20131216/avr/include/stdlib.h ****    The function itoa() converts the integer value from \c val into an
 394:/usr/local/CrossPack-AVR-20131216/avr/include/stdlib.h ****    ASCII representation that will be stored under \c s.  The caller
 395:/usr/local/CrossPack-AVR-20131216/avr/include/stdlib.h ****    is responsible for providing sufficient storage in \c s.
 396:/usr/local/CrossPack-AVR-20131216/avr/include/stdlib.h **** 
 397:/usr/local/CrossPack-AVR-20131216/avr/include/stdlib.h ****    \note The minimal size of the buffer \c s depends on the choice of
 398:/usr/local/CrossPack-AVR-20131216/avr/include/stdlib.h ****    radix. For example, if the radix is 2 (binary), you need to supply a buffer
 399:/usr/local/CrossPack-AVR-20131216/avr/include/stdlib.h ****    with a minimal length of 8 * sizeof (int) + 1 characters, i.e. one
 400:/usr/local/CrossPack-AVR-20131216/avr/include/stdlib.h ****    character for each bit plus one for the string terminator. Using a larger
 401:/usr/local/CrossPack-AVR-20131216/avr/include/stdlib.h ****    radix will require a smaller minimal buffer size.
 402:/usr/local/CrossPack-AVR-20131216/avr/include/stdlib.h **** 
 403:/usr/local/CrossPack-AVR-20131216/avr/include/stdlib.h ****    \warning If the buffer is too small, you risk a buffer overflow.
 404:/usr/local/CrossPack-AVR-20131216/avr/include/stdlib.h **** 
 405:/usr/local/CrossPack-AVR-20131216/avr/include/stdlib.h ****    Conversion is done using the \c radix as base, which may be a
 406:/usr/local/CrossPack-AVR-20131216/avr/include/stdlib.h ****    number between 2 (binary conversion) and up to 36.  If \c radix
 407:/usr/local/CrossPack-AVR-20131216/avr/include/stdlib.h ****    is greater than 10, the next digit after \c '9' will be the letter
 408:/usr/local/CrossPack-AVR-20131216/avr/include/stdlib.h ****    \c 'a'.
 409:/usr/local/CrossPack-AVR-20131216/avr/include/stdlib.h ****     
 410:/usr/local/CrossPack-AVR-20131216/avr/include/stdlib.h ****     If radix is 10 and val is negative, a minus sign will be prepended.
 411:/usr/local/CrossPack-AVR-20131216/avr/include/stdlib.h **** 
 412:/usr/local/CrossPack-AVR-20131216/avr/include/stdlib.h ****    The itoa() function returns the pointer passed as \c s.
 413:/usr/local/CrossPack-AVR-20131216/avr/include/stdlib.h **** */
 414:/usr/local/CrossPack-AVR-20131216/avr/include/stdlib.h **** #ifdef  __DOXYGEN__
 415:/usr/local/CrossPack-AVR-20131216/avr/include/stdlib.h **** extern char *itoa(int val, char *s, int radix);
 416:/usr/local/CrossPack-AVR-20131216/avr/include/stdlib.h **** #else
 417:/usr/local/CrossPack-AVR-20131216/avr/include/stdlib.h **** extern __inline__ __ATTR_GNU_INLINE__
 418:/usr/local/CrossPack-AVR-20131216/avr/include/stdlib.h **** char *itoa (int __val, char *__s, int __radix)
 419:/usr/local/CrossPack-AVR-20131216/avr/include/stdlib.h **** {
 420:/usr/local/CrossPack-AVR-20131216/avr/include/stdlib.h ****     if (!__builtin_constant_p (__radix)) {
 421:/usr/local/CrossPack-AVR-20131216/avr/include/stdlib.h **** 	extern char *__itoa (int, char *, int);
 422:/usr/local/CrossPack-AVR-20131216/avr/include/stdlib.h **** 	return __itoa (__val, __s, __radix);
 423:/usr/local/CrossPack-AVR-20131216/avr/include/stdlib.h ****     } else if (__radix < 2 || __radix > 36) {
 424:/usr/local/CrossPack-AVR-20131216/avr/include/stdlib.h **** 	*__s = 0;
 425:/usr/local/CrossPack-AVR-20131216/avr/include/stdlib.h **** 	return __s;
 426:/usr/local/CrossPack-AVR-20131216/avr/include/stdlib.h ****     } else {
 427:/usr/local/CrossPack-AVR-20131216/avr/include/stdlib.h **** 	extern char *__itoa_ncheck (int, char *, unsigned char);
 428:/usr/local/CrossPack-AVR-20131216/avr/include/stdlib.h **** 	return __itoa_ncheck (__val, __s, __radix);
 214               	.LM12:
 215 005e 4AE0      		ldi r20,lo8(10)
 216 0060 60E0      		ldi r22,lo8(DistanceFrontToChar)
 217 0062 70E0      		ldi r23,hi8(DistanceFrontToChar)
 218 0064 0E94 0000 		call __itoa_ncheck
 219               	.LBE47:
 220               	.LBE46:
 222               	.Ltext2:
 134:/Users/marklee/Documents/xcode/avr/DTU/Robot_test/Robot_test/mainStateMachine.c ****             
 135:/Users/marklee/Documents/xcode/avr/DTU/Robot_test/Robot_test/mainStateMachine.c ****             sendUartToInterface('I', DistanceFrontToChar);
 224               	.LM13:
 225 0068 60E0      		ldi r22,lo8(DistanceFrontToChar)
 226 006a 70E0      		ldi r23,hi8(DistanceFrontToChar)
 227 006c 89E4      		ldi r24,lo8(73)
 228 006e 0E94 0000 		call sendUartToInterface
 229               	.L4:
 136:/Users/marklee/Documents/xcode/avr/DTU/Robot_test/Robot_test/mainStateMachine.c ****         }
 137:/Users/marklee/Documents/xcode/avr/DTU/Robot_test/Robot_test/mainStateMachine.c ****         prevFrontDistance = frontDistance;
 231               	.LM14:
 232 0072 8091 0000 		lds r24,frontDistance
 233 0076 9091 0000 		lds r25,frontDistance+1
 234 007a 9093 0000 		sts prevFrontDistance+1,r25
 235 007e 8093 0000 		sts prevFrontDistance,r24
 236 0082 0895      		ret
 237               	.L3:
 238               	.LBE45:
 239               	.LBE44:
 138:/Users/marklee/Documents/xcode/avr/DTU/Robot_test/Robot_test/mainStateMachine.c ****     }
 139:/Users/marklee/Documents/xcode/avr/DTU/Robot_test/Robot_test/mainStateMachine.c ****     else
 140:/Users/marklee/Documents/xcode/avr/DTU/Robot_test/Robot_test/mainStateMachine.c ****     {
 141:/Users/marklee/Documents/xcode/avr/DTU/Robot_test/Robot_test/mainStateMachine.c ****         
 142:/Users/marklee/Documents/xcode/avr/DTU/Robot_test/Robot_test/mainStateMachine.c ****         newDistanceSide = HCSR04_get_distance_cm(sensor);
 241               	.LM15:
 242 0084 0E94 0000 		call HCSR04_get_distance_cm
 243 0088 9093 0000 		sts newDistanceSide+1,r25
 244 008c 8093 0000 		sts newDistanceSide,r24
 143:/Users/marklee/Documents/xcode/avr/DTU/Robot_test/Robot_test/mainStateMachine.c ****          
 144:/Users/marklee/Documents/xcode/avr/DTU/Robot_test/Robot_test/mainStateMachine.c ****         sideDistance = newDistanceSide;
 246               	.LM16:
 247 0090 8091 0000 		lds r24,newDistanceSide
 248 0094 9091 0000 		lds r25,newDistanceSide+1
 249 0098 9093 0000 		sts sideDistance+1,r25
 250 009c 8093 0000 		sts sideDistance,r24
 145:/Users/marklee/Documents/xcode/avr/DTU/Robot_test/Robot_test/mainStateMachine.c **** 
 146:/Users/marklee/Documents/xcode/avr/DTU/Robot_test/Robot_test/mainStateMachine.c ****         if (sideDistance != prevSideDistance)
 252               	.LM17:
 253 00a0 2091 0000 		lds r18,sideDistance
 254 00a4 3091 0000 		lds r19,sideDistance+1
 255 00a8 8091 0000 		lds r24,prevSideDistance
 256 00ac 9091 0000 		lds r25,prevSideDistance+1
 257 00b0 2817      		cp r18,r24
 258 00b2 3907      		cpc r19,r25
 259 00b4 01F0      		breq .L6
 147:/Users/marklee/Documents/xcode/avr/DTU/Robot_test/Robot_test/mainStateMachine.c ****         {
 148:/Users/marklee/Documents/xcode/avr/DTU/Robot_test/Robot_test/mainStateMachine.c ****             itoa(sideDistance, DistanceFrontToChar, 10);
 261               	.LM18:
 262 00b6 8091 0000 		lds r24,sideDistance
 263 00ba 9091 0000 		lds r25,sideDistance+1
 264               	.LBB48:
 265               	.LBB49:
 267               	.Ltext3:
 269               	.LM19:
 270 00be 4AE0      		ldi r20,lo8(10)
 271 00c0 60E0      		ldi r22,lo8(DistanceFrontToChar)
 272 00c2 70E0      		ldi r23,hi8(DistanceFrontToChar)
 273 00c4 0E94 0000 		call __itoa_ncheck
 274               	.LBE49:
 275               	.LBE48:
 277               	.Ltext4:
 149:/Users/marklee/Documents/xcode/avr/DTU/Robot_test/Robot_test/mainStateMachine.c ****         
 150:/Users/marklee/Documents/xcode/avr/DTU/Robot_test/Robot_test/mainStateMachine.c ****             sendUartToInterface('J', DistanceFrontToChar);
 279               	.LM20:
 280 00c8 60E0      		ldi r22,lo8(DistanceFrontToChar)
 281 00ca 70E0      		ldi r23,hi8(DistanceFrontToChar)
 282 00cc 8AE4      		ldi r24,lo8(74)
 283 00ce 0E94 0000 		call sendUartToInterface
 284               	.L6:
 151:/Users/marklee/Documents/xcode/avr/DTU/Robot_test/Robot_test/mainStateMachine.c ****         }
 152:/Users/marklee/Documents/xcode/avr/DTU/Robot_test/Robot_test/mainStateMachine.c ****         prevSideDistance = sideDistance;
 286               	.LM21:
 287 00d2 8091 0000 		lds r24,sideDistance
 288 00d6 9091 0000 		lds r25,sideDistance+1
 289 00da 9093 0000 		sts prevSideDistance+1,r25
 290 00de 8093 0000 		sts prevSideDistance,r24
 291 00e2 0895      		ret
 293               	.Lscope2:
 295               	.global	sendLineToInterface
 297               	sendLineToInterface:
 153:/Users/marklee/Documents/xcode/avr/DTU/Robot_test/Robot_test/mainStateMachine.c **** 
 154:/Users/marklee/Documents/xcode/avr/DTU/Robot_test/Robot_test/mainStateMachine.c ****      }
 155:/Users/marklee/Documents/xcode/avr/DTU/Robot_test/Robot_test/mainStateMachine.c **** }
 156:/Users/marklee/Documents/xcode/avr/DTU/Robot_test/Robot_test/mainStateMachine.c **** 
 157:/Users/marklee/Documents/xcode/avr/DTU/Robot_test/Robot_test/mainStateMachine.c **** /* ************************************************
 158:/Users/marklee/Documents/xcode/avr/DTU/Robot_test/Robot_test/mainStateMachine.c ****  *
 159:/Users/marklee/Documents/xcode/avr/DTU/Robot_test/Robot_test/mainStateMachine.c ****  * Function to send Linesensor value to PC interface
 160:/Users/marklee/Documents/xcode/avr/DTU/Robot_test/Robot_test/mainStateMachine.c ****  *
 161:/Users/marklee/Documents/xcode/avr/DTU/Robot_test/Robot_test/mainStateMachine.c ****  **************************************************/
 162:/Users/marklee/Documents/xcode/avr/DTU/Robot_test/Robot_test/mainStateMachine.c **** void sendLineToInterface(void)
 163:/Users/marklee/Documents/xcode/avr/DTU/Robot_test/Robot_test/mainStateMachine.c **** {
 299               	.LM22:
 300               	.LFBB3:
 301               	/* prologue: function */
 302               	/* frame size = 0 */
 303               	/* stack size = 0 */
 304               	.L__stack_usage = 0
 164:/Users/marklee/Documents/xcode/avr/DTU/Robot_test/Robot_test/mainStateMachine.c ****     newLine = LineSensors_value();
 306               	.LM23:
 307 00e4 0E94 0000 		call LineSensors_value
 308 00e8 9093 0000 		sts newLine+1,r25
 309 00ec 8093 0000 		sts newLine,r24
 165:/Users/marklee/Documents/xcode/avr/DTU/Robot_test/Robot_test/mainStateMachine.c ****     
 166:/Users/marklee/Documents/xcode/avr/DTU/Robot_test/Robot_test/mainStateMachine.c ****     if (newLine != prevLine) {
 311               	.LM24:
 312 00f0 2091 0000 		lds r18,newLine
 313 00f4 3091 0000 		lds r19,newLine+1
 314 00f8 8091 0000 		lds r24,prevLine
 315 00fc 9091 0000 		lds r25,prevLine+1
 316 0100 2817      		cp r18,r24
 317 0102 3907      		cpc r19,r25
 318 0104 01F0      		breq .L8
 319               	.LBB56:
 320               	.LBB57:
 167:/Users/marklee/Documents/xcode/avr/DTU/Robot_test/Robot_test/mainStateMachine.c ****         itoa(newLine, lineToChar, 10);
 322               	.LM25:
 323 0106 8091 0000 		lds r24,newLine
 324 010a 9091 0000 		lds r25,newLine+1
 325               	.LBB58:
 326               	.LBB59:
 328               	.Ltext5:
 330               	.LM26:
 331 010e 4AE0      		ldi r20,lo8(10)
 332 0110 60E0      		ldi r22,lo8(lineToChar)
 333 0112 70E0      		ldi r23,hi8(lineToChar)
 334 0114 0E94 0000 		call __itoa_ncheck
 335               	.LBE59:
 336               	.LBE58:
 338               	.Ltext6:
 168:/Users/marklee/Documents/xcode/avr/DTU/Robot_test/Robot_test/mainStateMachine.c ****         sendUartToInterface('F', lineToChar);
 340               	.LM27:
 341 0118 60E0      		ldi r22,lo8(lineToChar)
 342 011a 70E0      		ldi r23,hi8(lineToChar)
 343 011c 86E4      		ldi r24,lo8(70)
 344 011e 0C94 0000 		jmp sendUartToInterface
 345               	.L8:
 346 0122 0895      		ret
 347               	.LBE57:
 348               	.LBE56:
 350               	.Lscope3:
 353               	.global	stopTimeMs
 355               	stopTimeMs:
 169:/Users/marklee/Documents/xcode/avr/DTU/Robot_test/Robot_test/mainStateMachine.c ****     }
 170:/Users/marklee/Documents/xcode/avr/DTU/Robot_test/Robot_test/mainStateMachine.c **** }
 171:/Users/marklee/Documents/xcode/avr/DTU/Robot_test/Robot_test/mainStateMachine.c **** 
 172:/Users/marklee/Documents/xcode/avr/DTU/Robot_test/Robot_test/mainStateMachine.c **** /* ************************************************
 173:/Users/marklee/Documents/xcode/avr/DTU/Robot_test/Robot_test/mainStateMachine.c ****  *
 174:/Users/marklee/Documents/xcode/avr/DTU/Robot_test/Robot_test/mainStateMachine.c ****  * Function to stop robot for specified time in ms
 175:/Users/marklee/Documents/xcode/avr/DTU/Robot_test/Robot_test/mainStateMachine.c ****  *
 176:/Users/marklee/Documents/xcode/avr/DTU/Robot_test/Robot_test/mainStateMachine.c ****  * @param ms
 177:/Users/marklee/Documents/xcode/avr/DTU/Robot_test/Robot_test/mainStateMachine.c ****  *
 178:/Users/marklee/Documents/xcode/avr/DTU/Robot_test/Robot_test/mainStateMachine.c ****  **************************************************/
 179:/Users/marklee/Documents/xcode/avr/DTU/Robot_test/Robot_test/mainStateMachine.c **** void stopTimeMs(uint16_t ms)
 180:/Users/marklee/Documents/xcode/avr/DTU/Robot_test/Robot_test/mainStateMachine.c **** {
 357               	.LM28:
 358               	.LFBB4:
 359 0124 CF93      		push r28
 360 0126 DF93      		push r29
 361               	/* prologue: function */
 362               	/* frame size = 0 */
 363               	/* stack size = 2 */
 364               	.L__stack_usage = 2
 365 0128 EC01      		movw r28,r24
 181:/Users/marklee/Documents/xcode/avr/DTU/Robot_test/Robot_test/mainStateMachine.c ****     time1ms = 0;
 367               	.LM29:
 368 012a 1092 0000 		sts time1ms+1,__zero_reg__
 369 012e 1092 0000 		sts time1ms,__zero_reg__
 370               	.L11:
 182:/Users/marklee/Documents/xcode/avr/DTU/Robot_test/Robot_test/mainStateMachine.c ****     
 183:/Users/marklee/Documents/xcode/avr/DTU/Robot_test/Robot_test/mainStateMachine.c ****     while (time1ms <= ms) {
 372               	.LM30:
 373 0132 8091 0000 		lds r24,time1ms
 374 0136 9091 0000 		lds r25,time1ms+1
 375 013a C817      		cp r28,r24
 376 013c D907      		cpc r29,r25
 377 013e 00F0      		brlo .L13
 184:/Users/marklee/Documents/xcode/avr/DTU/Robot_test/Robot_test/mainStateMachine.c ****         stop();
 379               	.LM31:
 380 0140 0E94 0000 		call stop
 381 0144 00C0      		rjmp .L11
 382               	.L13:
 383               	/* epilogue start */
 185:/Users/marklee/Documents/xcode/avr/DTU/Robot_test/Robot_test/mainStateMachine.c ****     }
 186:/Users/marklee/Documents/xcode/avr/DTU/Robot_test/Robot_test/mainStateMachine.c **** }
 385               	.LM32:
 386 0146 DF91      		pop r29
 387 0148 CF91      		pop r28
 388 014a 0895      		ret
 390               	.Lscope4:
 392               	.global	followLine
 394               	followLine:
 187:/Users/marklee/Documents/xcode/avr/DTU/Robot_test/Robot_test/mainStateMachine.c **** 
 188:/Users/marklee/Documents/xcode/avr/DTU/Robot_test/Robot_test/mainStateMachine.c **** /* ************************************************
 189:/Users/marklee/Documents/xcode/avr/DTU/Robot_test/Robot_test/mainStateMachine.c ****  *
 190:/Users/marklee/Documents/xcode/avr/DTU/Robot_test/Robot_test/mainStateMachine.c ****  * Function to follow the line by checking line
 191:/Users/marklee/Documents/xcode/avr/DTU/Robot_test/Robot_test/mainStateMachine.c ****  * sensors
 192:/Users/marklee/Documents/xcode/avr/DTU/Robot_test/Robot_test/mainStateMachine.c ****  *
 193:/Users/marklee/Documents/xcode/avr/DTU/Robot_test/Robot_test/mainStateMachine.c ****  *
 194:/Users/marklee/Documents/xcode/avr/DTU/Robot_test/Robot_test/mainStateMachine.c ****  **************************************************/
 195:/Users/marklee/Documents/xcode/avr/DTU/Robot_test/Robot_test/mainStateMachine.c **** void followLine(void)
 196:/Users/marklee/Documents/xcode/avr/DTU/Robot_test/Robot_test/mainStateMachine.c **** {
 396               	.LM33:
 397               	.LFBB5:
 398               	/* prologue: function */
 399               	/* frame size = 0 */
 400               	/* stack size = 0 */
 401               	.L__stack_usage = 0
 197:/Users/marklee/Documents/xcode/avr/DTU/Robot_test/Robot_test/mainStateMachine.c ****     if (adjustSpeed)
 403               	.LM34:
 404 014c 8091 0000 		lds r24,adjustSpeed
 405 0150 8823      		tst r24
 406 0152 01F0      		breq .L14
 407               	.LBB62:
 408               	.LBB63:
 198:/Users/marklee/Documents/xcode/avr/DTU/Robot_test/Robot_test/mainStateMachine.c ****     {
 199:/Users/marklee/Documents/xcode/avr/DTU/Robot_test/Robot_test/mainStateMachine.c ****         adjustSpeed = false;
 410               	.LM35:
 411 0154 1092 0000 		sts adjustSpeed,__zero_reg__
 200:/Users/marklee/Documents/xcode/avr/DTU/Robot_test/Robot_test/mainStateMachine.c ****         LineSensors_check_all();
 413               	.LM36:
 414 0158 0E94 0000 		call LineSensors_check_all
 201:/Users/marklee/Documents/xcode/avr/DTU/Robot_test/Robot_test/mainStateMachine.c ****         sendLineToInterface();
 416               	.LM37:
 417 015c 0E94 0000 		call sendLineToInterface
 202:/Users/marklee/Documents/xcode/avr/DTU/Robot_test/Robot_test/mainStateMachine.c ****         lineStateMachine(newLine, prevLine);
 419               	.LM38:
 420 0160 6091 0000 		lds r22,prevLine
 421 0164 7091 0000 		lds r23,prevLine+1
 422 0168 8091 0000 		lds r24,newLine
 423 016c 9091 0000 		lds r25,newLine+1
 424 0170 0E94 0000 		call lineStateMachine
 203:/Users/marklee/Documents/xcode/avr/DTU/Robot_test/Robot_test/mainStateMachine.c ****         prevLine = newLine;
 426               	.LM39:
 427 0174 8091 0000 		lds r24,newLine
 428 0178 9091 0000 		lds r25,newLine+1
 429 017c 9093 0000 		sts prevLine+1,r25
 430 0180 8093 0000 		sts prevLine,r24
 431               	.L14:
 432 0184 0895      		ret
 433               	.LBE63:
 434               	.LBE62:
 436               	.Lscope5:
 439               	.global	driveDistanceEncoder
 441               	driveDistanceEncoder:
 204:/Users/marklee/Documents/xcode/avr/DTU/Robot_test/Robot_test/mainStateMachine.c ****     }
 205:/Users/marklee/Documents/xcode/avr/DTU/Robot_test/Robot_test/mainStateMachine.c **** }
 206:/Users/marklee/Documents/xcode/avr/DTU/Robot_test/Robot_test/mainStateMachine.c **** 
 207:/Users/marklee/Documents/xcode/avr/DTU/Robot_test/Robot_test/mainStateMachine.c **** void driveDistanceEncoder(int distanceInEncoderValues)
 208:/Users/marklee/Documents/xcode/avr/DTU/Robot_test/Robot_test/mainStateMachine.c **** {
 443               	.LM40:
 444               	.LFBB6:
 445 0186 0F93      		push r16
 446 0188 1F93      		push r17
 447 018a CF93      		push r28
 448 018c DF93      		push r29
 449               	/* prologue: function */
 450               	/* frame size = 0 */
 451               	/* stack size = 4 */
 452               	.L__stack_usage = 4
 453 018e 8C01      		movw r16,r24
 209:/Users/marklee/Documents/xcode/avr/DTU/Robot_test/Robot_test/mainStateMachine.c ****     // Wheel diameter 37,78 mm. 1032 encoder values pr. revolution
 210:/Users/marklee/Documents/xcode/avr/DTU/Robot_test/Robot_test/mainStateMachine.c ****     // distance in encoder values. 0.115 mm pr. encoder value. 100 mm = 869 encoder values
 211:/Users/marklee/Documents/xcode/avr/DTU/Robot_test/Robot_test/mainStateMachine.c **** 
 212:/Users/marklee/Documents/xcode/avr/DTU/Robot_test/Robot_test/mainStateMachine.c ****     int encoderCount = 0;
 455               	.LM41:
 456 0190 C0E0      		ldi r28,0
 457 0192 D0E0      		ldi r29,0
 458               	.L20:
 213:/Users/marklee/Documents/xcode/avr/DTU/Robot_test/Robot_test/mainStateMachine.c ****     
 214:/Users/marklee/Documents/xcode/avr/DTU/Robot_test/Robot_test/mainStateMachine.c ****     while (encoderCount <= distanceInEncoderValues )
 460               	.LM42:
 461 0194 0C17      		cp r16,r28
 462 0196 1D07      		cpc r17,r29
 463 0198 04F0      		brlt .L24
 464               	.L22:
 215:/Users/marklee/Documents/xcode/avr/DTU/Robot_test/Robot_test/mainStateMachine.c ****     {
 216:/Users/marklee/Documents/xcode/avr/DTU/Robot_test/Robot_test/mainStateMachine.c ****         if (adjustSpeed)
 466               	.LM43:
 467 019a 8091 0000 		lds r24,adjustSpeed
 468 019e 8823      		tst r24
 469 01a0 01F0      		breq .L22
 217:/Users/marklee/Documents/xcode/avr/DTU/Robot_test/Robot_test/mainStateMachine.c ****         {
 218:/Users/marklee/Documents/xcode/avr/DTU/Robot_test/Robot_test/mainStateMachine.c ****             adjustSpeed = false;
 471               	.LM44:
 472 01a2 1092 0000 		sts adjustSpeed,__zero_reg__
 219:/Users/marklee/Documents/xcode/avr/DTU/Robot_test/Robot_test/mainStateMachine.c ****             encoderCount += (encoderValueRight + encoderValueLeft)/2;
 474               	.LM45:
 475 01a6 2091 0000 		lds r18,encoderValueLeft
 476 01aa 3091 0000 		lds r19,encoderValueLeft+1
 477 01ae 8091 0000 		lds r24,encoderValueRight
 478 01b2 9091 0000 		lds r25,encoderValueRight+1
 479 01b6 280F      		add r18,r24
 480 01b8 391F      		adc r19,r25
 481 01ba 3695      		lsr r19
 482 01bc 2795      		ror r18
 483 01be C20F      		add r28,r18
 484 01c0 D31F      		adc r29,r19
 220:/Users/marklee/Documents/xcode/avr/DTU/Robot_test/Robot_test/mainStateMachine.c ****             drive(FORWARD, speed);
 486               	.LM46:
 487 01c2 6091 0000 		lds r22,speed
 488 01c6 7091 0000 		lds r23,speed+1
 489 01ca 80E0      		ldi r24,0
 490 01cc 90E0      		ldi r25,0
 491 01ce 0E94 0000 		call drive
 492 01d2 00C0      		rjmp .L20
 493               	.L24:
 494               	/* epilogue start */
 221:/Users/marklee/Documents/xcode/avr/DTU/Robot_test/Robot_test/mainStateMachine.c ****         }
 222:/Users/marklee/Documents/xcode/avr/DTU/Robot_test/Robot_test/mainStateMachine.c ****     }
 223:/Users/marklee/Documents/xcode/avr/DTU/Robot_test/Robot_test/mainStateMachine.c **** }
 496               	.LM47:
 497 01d4 DF91      		pop r29
 498 01d6 CF91      		pop r28
 499 01d8 1F91      		pop r17
 500 01da 0F91      		pop r16
 501 01dc 0895      		ret
 506               	.Lscope6:
 507               	.global	__floatsisf
 508               	.global	__divsf3
 509               	.global	__fixsfsi
 512               	.global	driveDistanceInCM
 514               	driveDistanceInCM:
 224:/Users/marklee/Documents/xcode/avr/DTU/Robot_test/Robot_test/mainStateMachine.c **** 
 225:/Users/marklee/Documents/xcode/avr/DTU/Robot_test/Robot_test/mainStateMachine.c **** void driveDistanceInCM(int cm)
 226:/Users/marklee/Documents/xcode/avr/DTU/Robot_test/Robot_test/mainStateMachine.c **** {
 516               	.LM48:
 517               	.LFBB7:
 518               	/* prologue: function */
 519               	/* frame size = 0 */
 520               	/* stack size = 0 */
 521               	.L__stack_usage = 0
 227:/Users/marklee/Documents/xcode/avr/DTU/Robot_test/Robot_test/mainStateMachine.c ****     int encoderValue = (cm*10)/0.115;
 523               	.LM49:
 524 01de 2AE0      		ldi r18,lo8(10)
 525 01e0 AC01      		movw r20,r24
 526 01e2 249F      		mul r18,r20
 527 01e4 C001      		movw r24,r0
 528 01e6 259F      		mul r18,r21
 529 01e8 900D      		add r25,r0
 530 01ea 1124      		clr __zero_reg__
 531 01ec BC01      		movw r22,r24
 532 01ee 8827      		clr r24
 533 01f0 77FD      		sbrc r23,7
 534 01f2 8095      		com r24
 535 01f4 982F      		mov r25,r24
 536 01f6 0E94 0000 		call __floatsisf
 537 01fa 2FE1      		ldi r18,lo8(31)
 538 01fc 35E8      		ldi r19,lo8(-123)
 539 01fe 4BEE      		ldi r20,lo8(-21)
 540 0200 5DE3      		ldi r21,lo8(61)
 541 0202 0E94 0000 		call __divsf3
 542 0206 0E94 0000 		call __fixsfsi
 228:/Users/marklee/Documents/xcode/avr/DTU/Robot_test/Robot_test/mainStateMachine.c ****     
 229:/Users/marklee/Documents/xcode/avr/DTU/Robot_test/Robot_test/mainStateMachine.c ****     driveDistanceEncoder(encoderValue);
 544               	.LM50:
 545 020a CB01      		movw r24,r22
 546 020c 0C94 0000 		jmp driveDistanceEncoder
 548               	.Lscope7:
 549               		.section	.rodata.str1.1
 550               	.LC1:
 551 0003 5475 726E 		.string	"Turning left some degrees"
 551      696E 6720 
 551      6C65 6674 
 551      2073 6F6D 
 551      6520 6465 
 552               	.LC2:
 553 001d 5475 726E 		.string	"Turning right some degrees"
 553      696E 6720 
 553      7269 6768 
 553      7420 736F 
 553      6D65 2064 
 554               	.LC3:
 555 0038 446F 6E65 		.string	"Done turning left some degrees"
 555      2074 7572 
 555      6E69 6E67 
 555      206C 6566 
 555      7420 736F 
 556               	.LC4:
 557 0057 446F 6E65 		.string	"Done turning right some degrees"
 557      2074 7572 
 557      6E69 6E67 
 557      2072 6967 
 557      6874 2073 
 558               		.text
 562               	.global	turnDegreesGyro
 564               	turnDegreesGyro:
 230:/Users/marklee/Documents/xcode/avr/DTU/Robot_test/Robot_test/mainStateMachine.c **** }
 231:/Users/marklee/Documents/xcode/avr/DTU/Robot_test/Robot_test/mainStateMachine.c **** 
 232:/Users/marklee/Documents/xcode/avr/DTU/Robot_test/Robot_test/mainStateMachine.c **** void turnDegreesGyro(int degrees, int leftOrRight)
 233:/Users/marklee/Documents/xcode/avr/DTU/Robot_test/Robot_test/mainStateMachine.c **** {
 566               	.LM51:
 567               	.LFBB8:
 568 0210 CF93      		push r28
 569 0212 DF93      		push r29
 570               	/* prologue: function */
 571               	/* frame size = 0 */
 572               	/* stack size = 2 */
 573               	.L__stack_usage = 2
 574 0214 EC01      		movw r28,r24
 234:/Users/marklee/Documents/xcode/avr/DTU/Robot_test/Robot_test/mainStateMachine.c ****     UCSR1B |= (1<<RXCIE1);  // Enable uart1 interrupts
 576               	.LM52:
 577 0216 8091 C900 		lds r24,201
 578 021a 8068      		ori r24,lo8(-128)
 579 021c 8093 C900 		sts 201,r24
 235:/Users/marklee/Documents/xcode/avr/DTU/Robot_test/Robot_test/mainStateMachine.c ****     
 236:/Users/marklee/Documents/xcode/avr/DTU/Robot_test/Robot_test/mainStateMachine.c ****     // direction = 0 -> LEFT
 237:/Users/marklee/Documents/xcode/avr/DTU/Robot_test/Robot_test/mainStateMachine.c ****     // direction = 1 -> RIGHT
 238:/Users/marklee/Documents/xcode/avr/DTU/Robot_test/Robot_test/mainStateMachine.c ****     if (!leftOrRight )
 581               	.LM53:
 582 0220 672B      		or r22,r23
 583 0222 01F4      		brne .L27
 239:/Users/marklee/Documents/xcode/avr/DTU/Robot_test/Robot_test/mainStateMachine.c ****     {
 240:/Users/marklee/Documents/xcode/avr/DTU/Robot_test/Robot_test/mainStateMachine.c ****         sendUartToInterface('H', "Turning left some degrees");
 585               	.LM54:
 586 0224 60E0      		ldi r22,lo8(.LC1)
 587 0226 70E0      		ldi r23,hi8(.LC1)
 588 0228 88E4      		ldi r24,lo8(72)
 589 022a 0E94 0000 		call sendUartToInterface
 241:/Users/marklee/Documents/xcode/avr/DTU/Robot_test/Robot_test/mainStateMachine.c ****     }
 242:/Users/marklee/Documents/xcode/avr/DTU/Robot_test/Robot_test/mainStateMachine.c ****     else
 243:/Users/marklee/Documents/xcode/avr/DTU/Robot_test/Robot_test/mainStateMachine.c ****     {
 244:/Users/marklee/Documents/xcode/avr/DTU/Robot_test/Robot_test/mainStateMachine.c ****         sendUartToInterface('H', "Turning right some degrees");
 245:/Users/marklee/Documents/xcode/avr/DTU/Robot_test/Robot_test/mainStateMachine.c ****     }
 246:/Users/marklee/Documents/xcode/avr/DTU/Robot_test/Robot_test/mainStateMachine.c ****     
 247:/Users/marklee/Documents/xcode/avr/DTU/Robot_test/Robot_test/mainStateMachine.c ****     if (!leftOrRight)   // LEFT
 248:/Users/marklee/Documents/xcode/avr/DTU/Robot_test/Robot_test/mainStateMachine.c ****     {
 249:/Users/marklee/Documents/xcode/avr/DTU/Robot_test/Robot_test/mainStateMachine.c ****         tempDegrees = direction - degrees;
 591               	.LM55:
 592 022e 2091 0000 		lds r18,direction
 593 0232 3091 0000 		lds r19,direction+1
 594 0236 2C1B      		sub r18,r28
 595 0238 3D0B      		sbc r19,r29
 596 023a 3093 0000 		sts tempDegrees+1,r19
 597 023e 2093 0000 		sts tempDegrees,r18
 250:/Users/marklee/Documents/xcode/avr/DTU/Robot_test/Robot_test/mainStateMachine.c ****         
 251:/Users/marklee/Documents/xcode/avr/DTU/Robot_test/Robot_test/mainStateMachine.c ****         while (direction >= tempDegrees)
 599               	.LM56:
 600 0242 00C0      		rjmp .L28
 601               	.L27:
 244:/Users/marklee/Documents/xcode/avr/DTU/Robot_test/Robot_test/mainStateMachine.c ****         sendUartToInterface('H', "Turning right some degrees");
 603               	.LM57:
 604 0244 60E0      		ldi r22,lo8(.LC2)
 605 0246 70E0      		ldi r23,hi8(.LC2)
 606 0248 88E4      		ldi r24,lo8(72)
 607 024a 0E94 0000 		call sendUartToInterface
 252:/Users/marklee/Documents/xcode/avr/DTU/Robot_test/Robot_test/mainStateMachine.c ****         {
 253:/Users/marklee/Documents/xcode/avr/DTU/Robot_test/Robot_test/mainStateMachine.c ****             if (adjustSpeed)
 254:/Users/marklee/Documents/xcode/avr/DTU/Robot_test/Robot_test/mainStateMachine.c ****             {
 255:/Users/marklee/Documents/xcode/avr/DTU/Robot_test/Robot_test/mainStateMachine.c ****                 adjustSpeed = false;
 256:/Users/marklee/Documents/xcode/avr/DTU/Robot_test/Robot_test/mainStateMachine.c ****                 drive(TURN_LEFT_TO_LINE, speed);
 257:/Users/marklee/Documents/xcode/avr/DTU/Robot_test/Robot_test/mainStateMachine.c ****             }
 258:/Users/marklee/Documents/xcode/avr/DTU/Robot_test/Robot_test/mainStateMachine.c ****         }
 259:/Users/marklee/Documents/xcode/avr/DTU/Robot_test/Robot_test/mainStateMachine.c ****     }
 260:/Users/marklee/Documents/xcode/avr/DTU/Robot_test/Robot_test/mainStateMachine.c ****     else   // RIGHT
 261:/Users/marklee/Documents/xcode/avr/DTU/Robot_test/Robot_test/mainStateMachine.c ****     {
 262:/Users/marklee/Documents/xcode/avr/DTU/Robot_test/Robot_test/mainStateMachine.c ****         tempDegrees = direction + degrees;
 609               	.LM58:
 610 024e 2091 0000 		lds r18,direction
 611 0252 3091 0000 		lds r19,direction+1
 612 0256 2C0F      		add r18,r28
 613 0258 3D1F      		adc r19,r29
 614 025a 3093 0000 		sts tempDegrees+1,r19
 615 025e 2093 0000 		sts tempDegrees,r18
 263:/Users/marklee/Documents/xcode/avr/DTU/Robot_test/Robot_test/mainStateMachine.c ****         
 264:/Users/marklee/Documents/xcode/avr/DTU/Robot_test/Robot_test/mainStateMachine.c ****         while (direction <= tempDegrees)
 617               	.LM59:
 618 0262 00C0      		rjmp .L29
 619               	.L31:
 251:/Users/marklee/Documents/xcode/avr/DTU/Robot_test/Robot_test/mainStateMachine.c ****         while (direction >= tempDegrees)
 621               	.LM60:
 622 0264 8091 0000 		lds r24,tempDegrees
 623 0268 9091 0000 		lds r25,tempDegrees+1
 624 026c 2817      		cp r18,r24
 625 026e 3907      		cpc r19,r25
 626 0270 04F0      		brlt .L43
 253:/Users/marklee/Documents/xcode/avr/DTU/Robot_test/Robot_test/mainStateMachine.c ****             if (adjustSpeed)
 628               	.LM61:
 629 0272 8091 0000 		lds r24,adjustSpeed
 630 0276 8823      		tst r24
 631 0278 01F0      		breq .L31
 255:/Users/marklee/Documents/xcode/avr/DTU/Robot_test/Robot_test/mainStateMachine.c ****                 adjustSpeed = false;
 633               	.LM62:
 634 027a 1092 0000 		sts adjustSpeed,__zero_reg__
 256:/Users/marklee/Documents/xcode/avr/DTU/Robot_test/Robot_test/mainStateMachine.c ****                 drive(TURN_LEFT_TO_LINE, speed);
 636               	.LM63:
 637 027e 6091 0000 		lds r22,speed
 638 0282 7091 0000 		lds r23,speed+1
 639 0286 89E0      		ldi r24,lo8(9)
 640 0288 90E0      		ldi r25,0
 641 028a 0E94 0000 		call drive
 642               	.L28:
 251:/Users/marklee/Documents/xcode/avr/DTU/Robot_test/Robot_test/mainStateMachine.c ****         while (direction >= tempDegrees)
 644               	.LM64:
 645 028e 2091 0000 		lds r18,direction
 646 0292 3091 0000 		lds r19,direction+1
 647 0296 00C0      		rjmp .L31
 648               	.L35:
 650               	.LM65:
 651 0298 8091 0000 		lds r24,tempDegrees
 652 029c 9091 0000 		lds r25,tempDegrees+1
 653 02a0 8217      		cp r24,r18
 654 02a2 9307      		cpc r25,r19
 655 02a4 04F0      		brlt .L44
 265:/Users/marklee/Documents/xcode/avr/DTU/Robot_test/Robot_test/mainStateMachine.c ****         {
 266:/Users/marklee/Documents/xcode/avr/DTU/Robot_test/Robot_test/mainStateMachine.c ****             if (adjustSpeed)
 657               	.LM66:
 658 02a6 8091 0000 		lds r24,adjustSpeed
 659 02aa 8823      		tst r24
 660 02ac 01F0      		breq .L35
 267:/Users/marklee/Documents/xcode/avr/DTU/Robot_test/Robot_test/mainStateMachine.c ****             {
 268:/Users/marklee/Documents/xcode/avr/DTU/Robot_test/Robot_test/mainStateMachine.c ****                 adjustSpeed = false;
 662               	.LM67:
 663 02ae 1092 0000 		sts adjustSpeed,__zero_reg__
 269:/Users/marklee/Documents/xcode/avr/DTU/Robot_test/Robot_test/mainStateMachine.c ****                 drive(TURN_RIGHT_TO_LINE, speed);
 665               	.LM68:
 666 02b2 6091 0000 		lds r22,speed
 667 02b6 7091 0000 		lds r23,speed+1
 668 02ba 8AE0      		ldi r24,lo8(10)
 669 02bc 90E0      		ldi r25,0
 670 02be 0E94 0000 		call drive
 671               	.L29:
 264:/Users/marklee/Documents/xcode/avr/DTU/Robot_test/Robot_test/mainStateMachine.c ****         while (direction <= tempDegrees)
 673               	.LM69:
 674 02c2 2091 0000 		lds r18,direction
 675 02c6 3091 0000 		lds r19,direction+1
 676 02ca 00C0      		rjmp .L35
 677               	.L43:
 270:/Users/marklee/Documents/xcode/avr/DTU/Robot_test/Robot_test/mainStateMachine.c ****             }
 271:/Users/marklee/Documents/xcode/avr/DTU/Robot_test/Robot_test/mainStateMachine.c ****         }
 272:/Users/marklee/Documents/xcode/avr/DTU/Robot_test/Robot_test/mainStateMachine.c ****     }
 273:/Users/marklee/Documents/xcode/avr/DTU/Robot_test/Robot_test/mainStateMachine.c ****     
 274:/Users/marklee/Documents/xcode/avr/DTU/Robot_test/Robot_test/mainStateMachine.c ****     if (!leftOrRight )
 275:/Users/marklee/Documents/xcode/avr/DTU/Robot_test/Robot_test/mainStateMachine.c ****     {
 276:/Users/marklee/Documents/xcode/avr/DTU/Robot_test/Robot_test/mainStateMachine.c ****         sendUartToInterface('H', "Done turning left some degrees");
 679               	.LM70:
 680 02cc 60E0      		ldi r22,lo8(.LC3)
 681 02ce 70E0      		ldi r23,hi8(.LC3)
 682 02d0 00C0      		rjmp .L42
 683               	.L44:
 277:/Users/marklee/Documents/xcode/avr/DTU/Robot_test/Robot_test/mainStateMachine.c ****     }
 278:/Users/marklee/Documents/xcode/avr/DTU/Robot_test/Robot_test/mainStateMachine.c ****     else
 279:/Users/marklee/Documents/xcode/avr/DTU/Robot_test/Robot_test/mainStateMachine.c ****     {
 280:/Users/marklee/Documents/xcode/avr/DTU/Robot_test/Robot_test/mainStateMachine.c ****         sendUartToInterface('H', "Done turning right some degrees");
 685               	.LM71:
 686 02d2 60E0      		ldi r22,lo8(.LC4)
 687 02d4 70E0      		ldi r23,hi8(.LC4)
 688               	.L42:
 689 02d6 88E4      		ldi r24,lo8(72)
 690 02d8 0E94 0000 		call sendUartToInterface
 281:/Users/marklee/Documents/xcode/avr/DTU/Robot_test/Robot_test/mainStateMachine.c ****     }
 282:/Users/marklee/Documents/xcode/avr/DTU/Robot_test/Robot_test/mainStateMachine.c ****     
 283:/Users/marklee/Documents/xcode/avr/DTU/Robot_test/Robot_test/mainStateMachine.c ****     UCSR1B &= ~(1<<RXCIE1);  // Disable uart1 interrupts
 692               	.LM72:
 693 02dc 8091 C900 		lds r24,201
 694 02e0 8F77      		andi r24,lo8(127)
 695 02e2 8093 C900 		sts 201,r24
 696               	/* epilogue start */
 284:/Users/marklee/Documents/xcode/avr/DTU/Robot_test/Robot_test/mainStateMachine.c **** }
 698               	.LM73:
 699 02e6 DF91      		pop r29
 700 02e8 CF91      		pop r28
 701 02ea 0895      		ret
 703               	.Lscope8:
 704               		.section	.rodata.str1.1
 705               	.LC5:
 706 0077 5475 726E 		.string	"Turning left 90 degrees with encoder values"
 706      696E 6720 
 706      6C65 6674 
 706      2039 3020 
 706      6465 6772 
 707               	.LC6:
 708 00a3 5475 726E 		.string	"Turning right 90 degrees with encoder values"
 708      696E 6720 
 708      7269 6768 
 708      7420 3930 
 708      2064 6567 
 709               	.LC7:
 710 00d0 446F 6E65 		.string	"Done Turning left 90 degrees with encoder values"
 710      2054 7572 
 710      6E69 6E67 
 710      206C 6566 
 710      7420 3930 
 711               	.LC8:
 712 0101 446F 6E65 		.string	"Done Turning right 90 degrees with encoder values"
 712      2054 7572 
 712      6E69 6E67 
 712      2072 6967 
 712      6874 2039 
 713               		.text
 716               	.global	turn90degreesEncoder
 718               	turn90degreesEncoder:
 285:/Users/marklee/Documents/xcode/avr/DTU/Robot_test/Robot_test/mainStateMachine.c **** 
 286:/Users/marklee/Documents/xcode/avr/DTU/Robot_test/Robot_test/mainStateMachine.c **** void turn90degreesEncoder(int direction)
 287:/Users/marklee/Documents/xcode/avr/DTU/Robot_test/Robot_test/mainStateMachine.c **** {
 720               	.LM74:
 721               	.LFBB9:
 722 02ec 0F93      		push r16
 723 02ee 1F93      		push r17
 724 02f0 CF93      		push r28
 725 02f2 DF93      		push r29
 726               	/* prologue: function */
 727               	/* frame size = 0 */
 728               	/* stack size = 4 */
 729               	.L__stack_usage = 4
 730 02f4 EC01      		movw r28,r24
 288:/Users/marklee/Documents/xcode/avr/DTU/Robot_test/Robot_test/mainStateMachine.c ****     // direction = 0 -> LEFT
 289:/Users/marklee/Documents/xcode/avr/DTU/Robot_test/Robot_test/mainStateMachine.c ****     // direction = 1 -> RIGHT
 290:/Users/marklee/Documents/xcode/avr/DTU/Robot_test/Robot_test/mainStateMachine.c ****     if (!direction ) {
 732               	.LM75:
 733 02f6 0097      		sbiw r24,0
 734 02f8 01F4      		brne .L46
 291:/Users/marklee/Documents/xcode/avr/DTU/Robot_test/Robot_test/mainStateMachine.c ****         sendUartToInterface('H', "Turning left 90 degrees with encoder values");
 736               	.LM76:
 737 02fa 60E0      		ldi r22,lo8(.LC5)
 738 02fc 70E0      		ldi r23,hi8(.LC5)
 739 02fe 00C0      		rjmp .L55
 740               	.L46:
 292:/Users/marklee/Documents/xcode/avr/DTU/Robot_test/Robot_test/mainStateMachine.c ****     }
 293:/Users/marklee/Documents/xcode/avr/DTU/Robot_test/Robot_test/mainStateMachine.c ****     else
 294:/Users/marklee/Documents/xcode/avr/DTU/Robot_test/Robot_test/mainStateMachine.c ****     {
 295:/Users/marklee/Documents/xcode/avr/DTU/Robot_test/Robot_test/mainStateMachine.c ****         sendUartToInterface('H', "Turning right 90 degrees with encoder values");
 742               	.LM77:
 743 0300 60E0      		ldi r22,lo8(.LC6)
 744 0302 70E0      		ldi r23,hi8(.LC6)
 745               	.L55:
 746 0304 88E4      		ldi r24,lo8(72)
 747 0306 0E94 0000 		call sendUartToInterface
 287:/Users/marklee/Documents/xcode/avr/DTU/Robot_test/Robot_test/mainStateMachine.c **** {
 749               	.LM78:
 750 030a 00E0      		ldi r16,0
 751 030c 10E0      		ldi r17,0
 752               	.L50:
 296:/Users/marklee/Documents/xcode/avr/DTU/Robot_test/Robot_test/mainStateMachine.c ****     }
 297:/Users/marklee/Documents/xcode/avr/DTU/Robot_test/Robot_test/mainStateMachine.c ****     
 298:/Users/marklee/Documents/xcode/avr/DTU/Robot_test/Robot_test/mainStateMachine.c ****     int countTurn = 0;
 299:/Users/marklee/Documents/xcode/avr/DTU/Robot_test/Robot_test/mainStateMachine.c ****     
 300:/Users/marklee/Documents/xcode/avr/DTU/Robot_test/Robot_test/mainStateMachine.c ****     while (countTurn <= 3000) // 1,5 * 1032      2760
 301:/Users/marklee/Documents/xcode/avr/DTU/Robot_test/Robot_test/mainStateMachine.c ****     {
 302:/Users/marklee/Documents/xcode/avr/DTU/Robot_test/Robot_test/mainStateMachine.c ****         if (adjustSpeed)
 754               	.LM79:
 755 030e 8091 0000 		lds r24,adjustSpeed
 756 0312 8823      		tst r24
 757 0314 01F0      		breq .L50
 303:/Users/marklee/Documents/xcode/avr/DTU/Robot_test/Robot_test/mainStateMachine.c ****         {
 304:/Users/marklee/Documents/xcode/avr/DTU/Robot_test/Robot_test/mainStateMachine.c ****             adjustSpeed = false;
 759               	.LM80:
 760 0316 1092 0000 		sts adjustSpeed,__zero_reg__
 305:/Users/marklee/Documents/xcode/avr/DTU/Robot_test/Robot_test/mainStateMachine.c ****             countTurn += encoderValueLeft;
 762               	.LM81:
 763 031a 8091 0000 		lds r24,encoderValueLeft
 764 031e 9091 0000 		lds r25,encoderValueLeft+1
 765 0322 080F      		add r16,r24
 766 0324 191F      		adc r17,r25
 767 0326 6091 0000 		lds r22,speed
 768 032a 7091 0000 		lds r23,speed+1
 306:/Users/marklee/Documents/xcode/avr/DTU/Robot_test/Robot_test/mainStateMachine.c ****             
 307:/Users/marklee/Documents/xcode/avr/DTU/Robot_test/Robot_test/mainStateMachine.c ****             if (!direction) {
 770               	.LM82:
 771 032e 2097      		sbiw r28,0
 772 0330 01F4      		brne .L51
 308:/Users/marklee/Documents/xcode/avr/DTU/Robot_test/Robot_test/mainStateMachine.c ****                 drive(TURN_LEFT_TO_LINE, speed);
 774               	.LM83:
 775 0332 89E0      		ldi r24,lo8(9)
 776 0334 90E0      		ldi r25,0
 777 0336 00C0      		rjmp .L56
 778               	.L51:
 309:/Users/marklee/Documents/xcode/avr/DTU/Robot_test/Robot_test/mainStateMachine.c ****             }
 310:/Users/marklee/Documents/xcode/avr/DTU/Robot_test/Robot_test/mainStateMachine.c ****             else
 311:/Users/marklee/Documents/xcode/avr/DTU/Robot_test/Robot_test/mainStateMachine.c ****             {
 312:/Users/marklee/Documents/xcode/avr/DTU/Robot_test/Robot_test/mainStateMachine.c ****                 drive(TURN_RIGHT_TO_LINE, speed);
 780               	.LM84:
 781 0338 8AE0      		ldi r24,lo8(10)
 782 033a 90E0      		ldi r25,0
 783               	.L56:
 784 033c 0E94 0000 		call drive
 300:/Users/marklee/Documents/xcode/avr/DTU/Robot_test/Robot_test/mainStateMachine.c ****     while (countTurn <= 3000) // 1,5 * 1032      2760
 786               	.LM85:
 787 0340 093B      		cpi r16,-71
 788 0342 8BE0      		ldi r24,11
 789 0344 1807      		cpc r17,r24
 790 0346 04F0      		brlt .L50
 313:/Users/marklee/Documents/xcode/avr/DTU/Robot_test/Robot_test/mainStateMachine.c ****             }
 314:/Users/marklee/Documents/xcode/avr/DTU/Robot_test/Robot_test/mainStateMachine.c ****         }
 315:/Users/marklee/Documents/xcode/avr/DTU/Robot_test/Robot_test/mainStateMachine.c ****     }
 316:/Users/marklee/Documents/xcode/avr/DTU/Robot_test/Robot_test/mainStateMachine.c ****     
 317:/Users/marklee/Documents/xcode/avr/DTU/Robot_test/Robot_test/mainStateMachine.c ****     if (!direction) {
 792               	.LM86:
 793 0348 CD2B      		or r28,r29
 794 034a 01F4      		brne .L54
 795               	.LBB66:
 796               	.LBB67:
 318:/Users/marklee/Documents/xcode/avr/DTU/Robot_test/Robot_test/mainStateMachine.c ****         sendUartToInterface('H', "Done Turning left 90 degrees with encoder values");
 798               	.LM87:
 799 034c 60E0      		ldi r22,lo8(.LC7)
 800 034e 70E0      		ldi r23,hi8(.LC7)
 801 0350 00C0      		rjmp .L57
 802               	.L54:
 803               	.LBE67:
 804               	.LBE66:
 319:/Users/marklee/Documents/xcode/avr/DTU/Robot_test/Robot_test/mainStateMachine.c ****     }
 320:/Users/marklee/Documents/xcode/avr/DTU/Robot_test/Robot_test/mainStateMachine.c ****     else
 321:/Users/marklee/Documents/xcode/avr/DTU/Robot_test/Robot_test/mainStateMachine.c ****     {
 322:/Users/marklee/Documents/xcode/avr/DTU/Robot_test/Robot_test/mainStateMachine.c ****         sendUartToInterface('H', "Done Turning right 90 degrees with encoder values");
 806               	.LM88:
 807 0352 60E0      		ldi r22,lo8(.LC8)
 808 0354 70E0      		ldi r23,hi8(.LC8)
 809               	.L57:
 810 0356 88E4      		ldi r24,lo8(72)
 811               	/* epilogue start */
 323:/Users/marklee/Documents/xcode/avr/DTU/Robot_test/Robot_test/mainStateMachine.c ****     }
 324:/Users/marklee/Documents/xcode/avr/DTU/Robot_test/Robot_test/mainStateMachine.c **** }
 813               	.LM89:
 814 0358 DF91      		pop r29
 815 035a CF91      		pop r28
 816 035c 1F91      		pop r17
 817 035e 0F91      		pop r16
 322:/Users/marklee/Documents/xcode/avr/DTU/Robot_test/Robot_test/mainStateMachine.c ****         sendUartToInterface('H', "Done Turning right 90 degrees with encoder values");
 819               	.LM90:
 820 0360 0C94 0000 		jmp sendUartToInterface
 825               	.Lscope9:
 826               		.section	.rodata.str1.1
 827               	.LC9:
 828 0133 5475 726E 		.string	"Turning left some degrees with encoder values"
 828      696E 6720 
 828      6C65 6674 
 828      2073 6F6D 
 828      6520 6465 
 829               	.LC10:
 830 0161 5475 726E 		.string	"Turning right some degrees with encoder values"
 830      696E 6720 
 830      7269 6768 
 830      7420 736F 
 830      6D65 2064 
 831               	.LC11:
 832 0190 446F 6E65 		.string	"Done Turning left some degrees with encoder values"
 832      2054 7572 
 832      6E69 6E67 
 832      206C 6566 
 832      7420 736F 
 833               	.LC12:
 834 01c3 446F 6E65 		.string	"Done Turning right some degrees with encoder values"
 834      2054 7572 
 834      6E69 6E67 
 834      2072 6967 
 834      6874 2073 
 835               		.text
 839               	.global	turnSomeDegreesEncoder
 841               	turnSomeDegreesEncoder:
 325:/Users/marklee/Documents/xcode/avr/DTU/Robot_test/Robot_test/mainStateMachine.c **** 
 326:/Users/marklee/Documents/xcode/avr/DTU/Robot_test/Robot_test/mainStateMachine.c **** void turnSomeDegreesEncoder(int direction, int degrees)
 327:/Users/marklee/Documents/xcode/avr/DTU/Robot_test/Robot_test/mainStateMachine.c **** {
 843               	.LM91:
 844               	.LFBB10:
 845 0364 EF92      		push r14
 846 0366 FF92      		push r15
 847 0368 0F93      		push r16
 848 036a 1F93      		push r17
 849 036c CF93      		push r28
 850 036e DF93      		push r29
 851               	/* prologue: function */
 852               	/* frame size = 0 */
 853               	/* stack size = 6 */
 854               	.L__stack_usage = 6
 855 0370 EC01      		movw r28,r24
 856 0372 7B01      		movw r14,r22
 328:/Users/marklee/Documents/xcode/avr/DTU/Robot_test/Robot_test/mainStateMachine.c ****     // direction = 0 -> LEFT
 329:/Users/marklee/Documents/xcode/avr/DTU/Robot_test/Robot_test/mainStateMachine.c ****     // direction = 1 -> RIGHT
 330:/Users/marklee/Documents/xcode/avr/DTU/Robot_test/Robot_test/mainStateMachine.c ****     if (!direction ) {
 858               	.LM92:
 859 0374 0097      		sbiw r24,0
 860 0376 01F4      		brne .L59
 331:/Users/marklee/Documents/xcode/avr/DTU/Robot_test/Robot_test/mainStateMachine.c ****         sendUartToInterface('H', "Turning left some degrees with encoder values");
 862               	.LM93:
 863 0378 60E0      		ldi r22,lo8(.LC9)
 864 037a 70E0      		ldi r23,hi8(.LC9)
 865 037c 00C0      		rjmp .L68
 866               	.L59:
 332:/Users/marklee/Documents/xcode/avr/DTU/Robot_test/Robot_test/mainStateMachine.c ****     }
 333:/Users/marklee/Documents/xcode/avr/DTU/Robot_test/Robot_test/mainStateMachine.c ****     else
 334:/Users/marklee/Documents/xcode/avr/DTU/Robot_test/Robot_test/mainStateMachine.c ****     {
 335:/Users/marklee/Documents/xcode/avr/DTU/Robot_test/Robot_test/mainStateMachine.c ****         sendUartToInterface('H', "Turning right some degrees with encoder values");
 868               	.LM94:
 869 037e 60E0      		ldi r22,lo8(.LC10)
 870 0380 70E0      		ldi r23,hi8(.LC10)
 871               	.L68:
 872 0382 88E4      		ldi r24,lo8(72)
 873 0384 0E94 0000 		call sendUartToInterface
 327:/Users/marklee/Documents/xcode/avr/DTU/Robot_test/Robot_test/mainStateMachine.c **** {
 875               	.LM95:
 876 0388 00E0      		ldi r16,0
 877 038a 10E0      		ldi r17,0
 878               	.L61:
 336:/Users/marklee/Documents/xcode/avr/DTU/Robot_test/Robot_test/mainStateMachine.c ****     }
 337:/Users/marklee/Documents/xcode/avr/DTU/Robot_test/Robot_test/mainStateMachine.c ****     
 338:/Users/marklee/Documents/xcode/avr/DTU/Robot_test/Robot_test/mainStateMachine.c ****     int countTurn = 0;
 339:/Users/marklee/Documents/xcode/avr/DTU/Robot_test/Robot_test/mainStateMachine.c ****     
 340:/Users/marklee/Documents/xcode/avr/DTU/Robot_test/Robot_test/mainStateMachine.c ****     while (countTurn <= degrees) // 1,5 * 1032      2760
 880               	.LM96:
 881 038c E016      		cp r14,r16
 882 038e F106      		cpc r15,r17
 883 0390 04F0      		brlt .L71
 884               	.L63:
 341:/Users/marklee/Documents/xcode/avr/DTU/Robot_test/Robot_test/mainStateMachine.c ****     {
 342:/Users/marklee/Documents/xcode/avr/DTU/Robot_test/Robot_test/mainStateMachine.c ****         if (adjustSpeed)
 886               	.LM97:
 887 0392 8091 0000 		lds r24,adjustSpeed
 888 0396 8823      		tst r24
 889 0398 01F0      		breq .L63
 343:/Users/marklee/Documents/xcode/avr/DTU/Robot_test/Robot_test/mainStateMachine.c ****         {
 344:/Users/marklee/Documents/xcode/avr/DTU/Robot_test/Robot_test/mainStateMachine.c ****             adjustSpeed = false;
 891               	.LM98:
 892 039a 1092 0000 		sts adjustSpeed,__zero_reg__
 345:/Users/marklee/Documents/xcode/avr/DTU/Robot_test/Robot_test/mainStateMachine.c ****             countTurn += encoderValueLeft;
 894               	.LM99:
 895 039e 8091 0000 		lds r24,encoderValueLeft
 896 03a2 9091 0000 		lds r25,encoderValueLeft+1
 897 03a6 080F      		add r16,r24
 898 03a8 191F      		adc r17,r25
 899 03aa 6091 0000 		lds r22,speed
 900 03ae 7091 0000 		lds r23,speed+1
 346:/Users/marklee/Documents/xcode/avr/DTU/Robot_test/Robot_test/mainStateMachine.c ****             
 347:/Users/marklee/Documents/xcode/avr/DTU/Robot_test/Robot_test/mainStateMachine.c ****             if (!direction) {
 902               	.LM100:
 903 03b2 2097      		sbiw r28,0
 904 03b4 01F4      		brne .L64
 348:/Users/marklee/Documents/xcode/avr/DTU/Robot_test/Robot_test/mainStateMachine.c ****                 drive(TURN_LEFT_TO_LINE, speed);
 906               	.LM101:
 907 03b6 89E0      		ldi r24,lo8(9)
 908 03b8 90E0      		ldi r25,0
 909 03ba 00C0      		rjmp .L69
 910               	.L64:
 349:/Users/marklee/Documents/xcode/avr/DTU/Robot_test/Robot_test/mainStateMachine.c ****             }
 350:/Users/marklee/Documents/xcode/avr/DTU/Robot_test/Robot_test/mainStateMachine.c ****             else
 351:/Users/marklee/Documents/xcode/avr/DTU/Robot_test/Robot_test/mainStateMachine.c ****             {
 352:/Users/marklee/Documents/xcode/avr/DTU/Robot_test/Robot_test/mainStateMachine.c ****                 drive(TURN_RIGHT_TO_LINE, speed);
 912               	.LM102:
 913 03bc 8AE0      		ldi r24,lo8(10)
 914 03be 90E0      		ldi r25,0
 915               	.L69:
 916 03c0 0E94 0000 		call drive
 917 03c4 00C0      		rjmp .L61
 918               	.L71:
 353:/Users/marklee/Documents/xcode/avr/DTU/Robot_test/Robot_test/mainStateMachine.c ****             }
 354:/Users/marklee/Documents/xcode/avr/DTU/Robot_test/Robot_test/mainStateMachine.c ****         }
 355:/Users/marklee/Documents/xcode/avr/DTU/Robot_test/Robot_test/mainStateMachine.c ****     }
 356:/Users/marklee/Documents/xcode/avr/DTU/Robot_test/Robot_test/mainStateMachine.c ****     
 357:/Users/marklee/Documents/xcode/avr/DTU/Robot_test/Robot_test/mainStateMachine.c ****     if (!direction) {
 920               	.LM103:
 921 03c6 CD2B      		or r28,r29
 922 03c8 01F4      		brne .L67
 923               	.LBB70:
 924               	.LBB71:
 358:/Users/marklee/Documents/xcode/avr/DTU/Robot_test/Robot_test/mainStateMachine.c ****         sendUartToInterface('H', "Done Turning left some degrees with encoder values");
 926               	.LM104:
 927 03ca 60E0      		ldi r22,lo8(.LC11)
 928 03cc 70E0      		ldi r23,hi8(.LC11)
 929 03ce 00C0      		rjmp .L70
 930               	.L67:
 931               	.LBE71:
 932               	.LBE70:
 359:/Users/marklee/Documents/xcode/avr/DTU/Robot_test/Robot_test/mainStateMachine.c ****     }
 360:/Users/marklee/Documents/xcode/avr/DTU/Robot_test/Robot_test/mainStateMachine.c ****     else
 361:/Users/marklee/Documents/xcode/avr/DTU/Robot_test/Robot_test/mainStateMachine.c ****     {
 362:/Users/marklee/Documents/xcode/avr/DTU/Robot_test/Robot_test/mainStateMachine.c ****         sendUartToInterface('H', "Done Turning right some degrees with encoder values");
 934               	.LM105:
 935 03d0 60E0      		ldi r22,lo8(.LC12)
 936 03d2 70E0      		ldi r23,hi8(.LC12)
 937               	.L70:
 938 03d4 88E4      		ldi r24,lo8(72)
 939               	/* epilogue start */
 363:/Users/marklee/Documents/xcode/avr/DTU/Robot_test/Robot_test/mainStateMachine.c ****     }
 364:/Users/marklee/Documents/xcode/avr/DTU/Robot_test/Robot_test/mainStateMachine.c **** }
 941               	.LM106:
 942 03d6 DF91      		pop r29
 943 03d8 CF91      		pop r28
 944 03da 1F91      		pop r17
 945 03dc 0F91      		pop r16
 946 03de FF90      		pop r15
 947 03e0 EF90      		pop r14
 362:/Users/marklee/Documents/xcode/avr/DTU/Robot_test/Robot_test/mainStateMachine.c ****         sendUartToInterface('H', "Done Turning right some degrees with encoder values");
 949               	.LM107:
 950 03e2 0C94 0000 		jmp sendUartToInterface
 955               	.Lscope10:
 956               		.section	.rodata.str1.1
 957               	.LC13:
 958 01f7 5475 726E 		.string	"Turning left to line"
 958      696E 6720 
 958      6C65 6674 
 958      2074 6F20 
 958      6C69 6E65 
 959               	.LC14:
 960 020c 5475 726E 		.string	"Turning right to line"
 960      696E 6720 
 960      7269 6768 
 960      7420 746F 
 960      206C 696E 
 961               	.LC15:
 962 0222 446F 6E65 		.string	"Done Turning left to line"
 962      2054 7572 
 962      6E69 6E67 
 962      206C 6566 
 962      7420 746F 
 963               	.LC16:
 964 023c 446F 6E65 		.string	"Done Turning right to line"
 964      2054 7572 
 964      6E69 6E67 
 964      2072 6967 
 964      6874 2074 
 965               		.text
 968               	.global	turnToLine
 970               	turnToLine:
 365:/Users/marklee/Documents/xcode/avr/DTU/Robot_test/Robot_test/mainStateMachine.c **** 
 366:/Users/marklee/Documents/xcode/avr/DTU/Robot_test/Robot_test/mainStateMachine.c **** void turnToLine(int direction)
 367:/Users/marklee/Documents/xcode/avr/DTU/Robot_test/Robot_test/mainStateMachine.c **** {
 972               	.LM108:
 973               	.LFBB11:
 974 03e6 CF93      		push r28
 975 03e8 DF93      		push r29
 976               	/* prologue: function */
 977               	/* frame size = 0 */
 978               	/* stack size = 2 */
 979               	.L__stack_usage = 2
 980 03ea EC01      		movw r28,r24
 368:/Users/marklee/Documents/xcode/avr/DTU/Robot_test/Robot_test/mainStateMachine.c ****     // direction = 0 -> LEFT
 369:/Users/marklee/Documents/xcode/avr/DTU/Robot_test/Robot_test/mainStateMachine.c ****     // direction = 1 -> RIGHT
 370:/Users/marklee/Documents/xcode/avr/DTU/Robot_test/Robot_test/mainStateMachine.c ****     
 371:/Users/marklee/Documents/xcode/avr/DTU/Robot_test/Robot_test/mainStateMachine.c ****     if (!direction) {
 982               	.LM109:
 983 03ec 0097      		sbiw r24,0
 984 03ee 01F4      		brne .L73
 372:/Users/marklee/Documents/xcode/avr/DTU/Robot_test/Robot_test/mainStateMachine.c ****         sendUartToInterface('H', "Turning left to line");
 986               	.LM110:
 987 03f0 60E0      		ldi r22,lo8(.LC13)
 988 03f2 70E0      		ldi r23,hi8(.LC13)
 989 03f4 00C0      		rjmp .L82
 990               	.L73:
 373:/Users/marklee/Documents/xcode/avr/DTU/Robot_test/Robot_test/mainStateMachine.c ****     }
 374:/Users/marklee/Documents/xcode/avr/DTU/Robot_test/Robot_test/mainStateMachine.c ****     else
 375:/Users/marklee/Documents/xcode/avr/DTU/Robot_test/Robot_test/mainStateMachine.c ****     {
 376:/Users/marklee/Documents/xcode/avr/DTU/Robot_test/Robot_test/mainStateMachine.c ****         sendUartToInterface('H', "Turning right to line");
 992               	.LM111:
 993 03f6 60E0      		ldi r22,lo8(.LC14)
 994 03f8 70E0      		ldi r23,hi8(.LC14)
 995               	.L82:
 996 03fa 88E4      		ldi r24,lo8(72)
 997 03fc 0E94 0000 		call sendUartToInterface
 998               	.L76:
 377:/Users/marklee/Documents/xcode/avr/DTU/Robot_test/Robot_test/mainStateMachine.c ****     }
 378:/Users/marklee/Documents/xcode/avr/DTU/Robot_test/Robot_test/mainStateMachine.c ****     
 379:/Users/marklee/Documents/xcode/avr/DTU/Robot_test/Robot_test/mainStateMachine.c ****     // drive forward 8cm 80/0.115 = 435
 380:/Users/marklee/Documents/xcode/avr/DTU/Robot_test/Robot_test/mainStateMachine.c ****     //driveDistanceEncoder(435);
 381:/Users/marklee/Documents/xcode/avr/DTU/Robot_test/Robot_test/mainStateMachine.c ****     
 382:/Users/marklee/Documents/xcode/avr/DTU/Robot_test/Robot_test/mainStateMachine.c ****     while (true)
 383:/Users/marklee/Documents/xcode/avr/DTU/Robot_test/Robot_test/mainStateMachine.c ****     {
 384:/Users/marklee/Documents/xcode/avr/DTU/Robot_test/Robot_test/mainStateMachine.c ****         if (adjustSpeed)
 1000               	.LM112:
 1001 0400 8091 0000 		lds r24,adjustSpeed
 1002 0404 8823      		tst r24
 1003 0406 01F0      		breq .L76
 385:/Users/marklee/Documents/xcode/avr/DTU/Robot_test/Robot_test/mainStateMachine.c ****         {
 386:/Users/marklee/Documents/xcode/avr/DTU/Robot_test/Robot_test/mainStateMachine.c ****             adjustSpeed = false;
 1005               	.LM113:
 1006 0408 1092 0000 		sts adjustSpeed,__zero_reg__
 387:/Users/marklee/Documents/xcode/avr/DTU/Robot_test/Robot_test/mainStateMachine.c ****             
 388:/Users/marklee/Documents/xcode/avr/DTU/Robot_test/Robot_test/mainStateMachine.c ****             LineSensors_check_all();
 1008               	.LM114:
 1009 040c 0E94 0000 		call LineSensors_check_all
 389:/Users/marklee/Documents/xcode/avr/DTU/Robot_test/Robot_test/mainStateMachine.c ****             sendLineToInterface();
 1011               	.LM115:
 1012 0410 0E94 0000 		call sendLineToInterface
 390:/Users/marklee/Documents/xcode/avr/DTU/Robot_test/Robot_test/mainStateMachine.c ****             
 391:/Users/marklee/Documents/xcode/avr/DTU/Robot_test/Robot_test/mainStateMachine.c ****             if (!direction) {
 392:/Users/marklee/Documents/xcode/avr/DTU/Robot_test/Robot_test/mainStateMachine.c ****                 if (newLine == 0 && prevLine == 2)
 1014               	.LM116:
 1015 0414 8091 0000 		lds r24,newLine
 1016 0418 9091 0000 		lds r25,newLine+1
 391:/Users/marklee/Documents/xcode/avr/DTU/Robot_test/Robot_test/mainStateMachine.c ****             if (!direction) {
 1018               	.LM117:
 1019 041c 2097      		sbiw r28,0
 1020 041e 01F4      		brne .L77
 1022               	.LM118:
 1023 0420 892B      		or r24,r25
 1024 0422 01F4      		brne .L78
 1026               	.LM119:
 1027 0424 8091 0000 		lds r24,prevLine
 1028 0428 9091 0000 		lds r25,prevLine+1
 1029 042c 0297      		sbiw r24,2
 1030 042e 01F4      		brne .L78
 393:/Users/marklee/Documents/xcode/avr/DTU/Robot_test/Robot_test/mainStateMachine.c ****                 {
 394:/Users/marklee/Documents/xcode/avr/DTU/Robot_test/Robot_test/mainStateMachine.c ****                     sendUartToInterface('H', "Done Turning left to line");
 1032               	.LM120:
 1033 0430 60E0      		ldi r22,lo8(.LC15)
 1034 0432 70E0      		ldi r23,hi8(.LC15)
 1035 0434 00C0      		rjmp .L84
 1036               	.L78:
 395:/Users/marklee/Documents/xcode/avr/DTU/Robot_test/Robot_test/mainStateMachine.c ****                     break;
 396:/Users/marklee/Documents/xcode/avr/DTU/Robot_test/Robot_test/mainStateMachine.c ****                 }
 397:/Users/marklee/Documents/xcode/avr/DTU/Robot_test/Robot_test/mainStateMachine.c ****                 else
 398:/Users/marklee/Documents/xcode/avr/DTU/Robot_test/Robot_test/mainStateMachine.c ****                 {
 399:/Users/marklee/Documents/xcode/avr/DTU/Robot_test/Robot_test/mainStateMachine.c ****                     drive(TURN_LEFT_TO_LINE, speed);
 1038               	.LM121:
 1039 0436 6091 0000 		lds r22,speed
 1040 043a 7091 0000 		lds r23,speed+1
 1041 043e 89E0      		ldi r24,lo8(9)
 1042 0440 90E0      		ldi r25,0
 1043 0442 00C0      		rjmp .L83
 1044               	.L77:
 400:/Users/marklee/Documents/xcode/avr/DTU/Robot_test/Robot_test/mainStateMachine.c ****                 }
 401:/Users/marklee/Documents/xcode/avr/DTU/Robot_test/Robot_test/mainStateMachine.c ****             }
 402:/Users/marklee/Documents/xcode/avr/DTU/Robot_test/Robot_test/mainStateMachine.c ****             else
 403:/Users/marklee/Documents/xcode/avr/DTU/Robot_test/Robot_test/mainStateMachine.c ****             {
 404:/Users/marklee/Documents/xcode/avr/DTU/Robot_test/Robot_test/mainStateMachine.c ****                 if (newLine == 0 && prevLine == 4)
 1046               	.LM122:
 1047 0444 892B      		or r24,r25
 1048 0446 01F4      		brne .L80
 1050               	.LM123:
 1051 0448 8091 0000 		lds r24,prevLine
 1052 044c 9091 0000 		lds r25,prevLine+1
 1053 0450 0497      		sbiw r24,4
 1054 0452 01F4      		brne .L80
 405:/Users/marklee/Documents/xcode/avr/DTU/Robot_test/Robot_test/mainStateMachine.c ****                 {
 406:/Users/marklee/Documents/xcode/avr/DTU/Robot_test/Robot_test/mainStateMachine.c ****                     sendUartToInterface('H', "Done Turning right to line");
 1056               	.LM124:
 1057 0454 60E0      		ldi r22,lo8(.LC16)
 1058 0456 70E0      		ldi r23,hi8(.LC16)
 1059               	.L84:
 1060 0458 88E4      		ldi r24,lo8(72)
 1061               	/* epilogue start */
 407:/Users/marklee/Documents/xcode/avr/DTU/Robot_test/Robot_test/mainStateMachine.c ****                     break;
 408:/Users/marklee/Documents/xcode/avr/DTU/Robot_test/Robot_test/mainStateMachine.c ****                 }
 409:/Users/marklee/Documents/xcode/avr/DTU/Robot_test/Robot_test/mainStateMachine.c ****                 else
 410:/Users/marklee/Documents/xcode/avr/DTU/Robot_test/Robot_test/mainStateMachine.c ****                 {
 411:/Users/marklee/Documents/xcode/avr/DTU/Robot_test/Robot_test/mainStateMachine.c ****                     drive(TURN_RIGHT_TO_LINE, speed);
 412:/Users/marklee/Documents/xcode/avr/DTU/Robot_test/Robot_test/mainStateMachine.c ****                 }
 413:/Users/marklee/Documents/xcode/avr/DTU/Robot_test/Robot_test/mainStateMachine.c ****             }
 414:/Users/marklee/Documents/xcode/avr/DTU/Robot_test/Robot_test/mainStateMachine.c ****             prevLine = newLine;
 415:/Users/marklee/Documents/xcode/avr/DTU/Robot_test/Robot_test/mainStateMachine.c ****         }
 416:/Users/marklee/Documents/xcode/avr/DTU/Robot_test/Robot_test/mainStateMachine.c ****     }
 417:/Users/marklee/Documents/xcode/avr/DTU/Robot_test/Robot_test/mainStateMachine.c **** }
 1063               	.LM125:
 1064 045a DF91      		pop r29
 1065 045c CF91      		pop r28
 406:/Users/marklee/Documents/xcode/avr/DTU/Robot_test/Robot_test/mainStateMachine.c ****                     sendUartToInterface('H', "Done Turning right to line");
 1067               	.LM126:
 1068 045e 0C94 0000 		jmp sendUartToInterface
 1069               	.L80:
 411:/Users/marklee/Documents/xcode/avr/DTU/Robot_test/Robot_test/mainStateMachine.c ****                     drive(TURN_RIGHT_TO_LINE, speed);
 1071               	.LM127:
 1072 0462 6091 0000 		lds r22,speed
 1073 0466 7091 0000 		lds r23,speed+1
 1074 046a 8AE0      		ldi r24,lo8(10)
 1075 046c 90E0      		ldi r25,0
 1076               	.L83:
 1077 046e 0E94 0000 		call drive
 414:/Users/marklee/Documents/xcode/avr/DTU/Robot_test/Robot_test/mainStateMachine.c ****             prevLine = newLine;
 1079               	.LM128:
 1080 0472 8091 0000 		lds r24,newLine
 1081 0476 9091 0000 		lds r25,newLine+1
 1082 047a 9093 0000 		sts prevLine+1,r25
 1083 047e 8093 0000 		sts prevLine,r24
 1084 0482 00C0      		rjmp .L76
 1086               	.Lscope11:
 1087               		.section	.rodata.str1.1
 1088               	.LC17:
 1089 0257 4C69 6E65 		.string	"Line found"
 1089      2066 6F75 
 1089      6E64 00
 1090               		.text
 1092               	.global	findLine
 1094               	findLine:
 418:/Users/marklee/Documents/xcode/avr/DTU/Robot_test/Robot_test/mainStateMachine.c **** 
 419:/Users/marklee/Documents/xcode/avr/DTU/Robot_test/Robot_test/mainStateMachine.c **** void findLine(void)
 420:/Users/marklee/Documents/xcode/avr/DTU/Robot_test/Robot_test/mainStateMachine.c **** {
 1096               	.LM129:
 1097               	.LFBB12:
 1098               	/* prologue: function */
 1099               	/* frame size = 0 */
 1100               	/* stack size = 0 */
 1101               	.L__stack_usage = 0
 1102               	.L87:
 421:/Users/marklee/Documents/xcode/avr/DTU/Robot_test/Robot_test/mainStateMachine.c ****     while (!adjustSpeed);
 1104               	.LM130:
 1105 0484 8091 0000 		lds r24,adjustSpeed
 1106 0488 8823      		tst r24
 1107 048a 01F0      		breq .L87
 422:/Users/marklee/Documents/xcode/avr/DTU/Robot_test/Robot_test/mainStateMachine.c ****     if (adjustSpeed)
 1109               	.LM131:
 1110 048c 8091 0000 		lds r24,adjustSpeed
 1111 0490 8823      		tst r24
 1112 0492 01F0      		breq .L85
 423:/Users/marklee/Documents/xcode/avr/DTU/Robot_test/Robot_test/mainStateMachine.c ****     {
 424:/Users/marklee/Documents/xcode/avr/DTU/Robot_test/Robot_test/mainStateMachine.c ****         adjustSpeed = false;
 1114               	.LM132:
 1115 0494 1092 0000 		sts adjustSpeed,__zero_reg__
 425:/Users/marklee/Documents/xcode/avr/DTU/Robot_test/Robot_test/mainStateMachine.c ****         LineSensors_check_all();
 1117               	.LM133:
 1118 0498 0E94 0000 		call LineSensors_check_all
 426:/Users/marklee/Documents/xcode/avr/DTU/Robot_test/Robot_test/mainStateMachine.c ****         sendLineToInterface();
 1120               	.LM134:
 1121 049c 0E94 0000 		call sendLineToInterface
 427:/Users/marklee/Documents/xcode/avr/DTU/Robot_test/Robot_test/mainStateMachine.c **** 
 428:/Users/marklee/Documents/xcode/avr/DTU/Robot_test/Robot_test/mainStateMachine.c ****         if (newLine == 15 || newLine == 7 || newLine == 14)
 1123               	.LM135:
 1124 04a0 8091 0000 		lds r24,newLine
 1125 04a4 9091 0000 		lds r25,newLine+1
 1126 04a8 0F97      		sbiw r24,15
 1127 04aa 01F0      		breq .L89
 1129               	.LM136:
 1130 04ac 8091 0000 		lds r24,newLine
 1131 04b0 9091 0000 		lds r25,newLine+1
 1132 04b4 0797      		sbiw r24,7
 1133 04b6 01F0      		breq .L89
 1134 04b8 8091 0000 		lds r24,newLine
 1135 04bc 9091 0000 		lds r25,newLine+1
 1136 04c0 0E97      		sbiw r24,14
 1137 04c2 01F4      		brne .L90
 1138               	.L89:
 429:/Users/marklee/Documents/xcode/avr/DTU/Robot_test/Robot_test/mainStateMachine.c ****         {
 430:/Users/marklee/Documents/xcode/avr/DTU/Robot_test/Robot_test/mainStateMachine.c ****             sendUartToInterface('H', "Line found");
 1140               	.LM137:
 1141 04c4 60E0      		ldi r22,lo8(.LC17)
 1142 04c6 70E0      		ldi r23,hi8(.LC17)
 1143 04c8 88E4      		ldi r24,lo8(72)
 1144 04ca 0E94 0000 		call sendUartToInterface
 431:/Users/marklee/Documents/xcode/avr/DTU/Robot_test/Robot_test/mainStateMachine.c ****             lineFoundFlag = 1;
 1146               	.LM138:
 1147 04ce 81E0      		ldi r24,lo8(1)
 1148 04d0 90E0      		ldi r25,0
 1149 04d2 9093 0000 		sts lineFoundFlag+1,r25
 1150 04d6 8093 0000 		sts lineFoundFlag,r24
 1151 04da 00C0      		rjmp .L91
 1152               	.L90:
 432:/Users/marklee/Documents/xcode/avr/DTU/Robot_test/Robot_test/mainStateMachine.c ****         }
 433:/Users/marklee/Documents/xcode/avr/DTU/Robot_test/Robot_test/mainStateMachine.c ****         else
 434:/Users/marklee/Documents/xcode/avr/DTU/Robot_test/Robot_test/mainStateMachine.c ****         {
 435:/Users/marklee/Documents/xcode/avr/DTU/Robot_test/Robot_test/mainStateMachine.c ****             drive(FORWARD, speed); // Straight outta Compton
 1154               	.LM139:
 1155 04dc 6091 0000 		lds r22,speed
 1156 04e0 7091 0000 		lds r23,speed+1
 1157 04e4 80E0      		ldi r24,0
 1158 04e6 90E0      		ldi r25,0
 1159 04e8 0E94 0000 		call drive
 1160               	.L91:
 436:/Users/marklee/Documents/xcode/avr/DTU/Robot_test/Robot_test/mainStateMachine.c ****         }
 437:/Users/marklee/Documents/xcode/avr/DTU/Robot_test/Robot_test/mainStateMachine.c ****         prevLine = newLine;
 1162               	.LM140:
 1163 04ec 8091 0000 		lds r24,newLine
 1164 04f0 9091 0000 		lds r25,newLine+1
 1165 04f4 9093 0000 		sts prevLine+1,r25
 1166 04f8 8093 0000 		sts prevLine,r24
 1167               	.L85:
 1168 04fc 0895      		ret
 1170               	.Lscope12:
 1171               		.section	.rodata.str1.1
 1172               	.LC18:
 1173 0262 4F63 7461 		.string	"Octagon"
 1173      676F 6E00 
 1174               		.text
 1176               	.global	octagon
 1178               	octagon:
 438:/Users/marklee/Documents/xcode/avr/DTU/Robot_test/Robot_test/mainStateMachine.c ****     }
 439:/Users/marklee/Documents/xcode/avr/DTU/Robot_test/Robot_test/mainStateMachine.c **** }
 440:/Users/marklee/Documents/xcode/avr/DTU/Robot_test/Robot_test/mainStateMachine.c **** 
 441:/Users/marklee/Documents/xcode/avr/DTU/Robot_test/Robot_test/mainStateMachine.c **** void octagon(void)
 442:/Users/marklee/Documents/xcode/avr/DTU/Robot_test/Robot_test/mainStateMachine.c **** {
 1180               	.LM141:
 1181               	.LFBB13:
 1182               	/* prologue: function */
 1183               	/* frame size = 0 */
 1184               	/* stack size = 0 */
 1185               	.L__stack_usage = 0
 443:/Users/marklee/Documents/xcode/avr/DTU/Robot_test/Robot_test/mainStateMachine.c ****     int flag = 0;
 444:/Users/marklee/Documents/xcode/avr/DTU/Robot_test/Robot_test/mainStateMachine.c ****     
 445:/Users/marklee/Documents/xcode/avr/DTU/Robot_test/Robot_test/mainStateMachine.c ****     sendUartToInterface('H', "Octagon");
 1187               	.LM142:
 1188 04fe 60E0      		ldi r22,lo8(.LC18)
 1189 0500 70E0      		ldi r23,hi8(.LC18)
 1190 0502 88E4      		ldi r24,lo8(72)
 1191 0504 0E94 0000 		call sendUartToInterface
 446:/Users/marklee/Documents/xcode/avr/DTU/Robot_test/Robot_test/mainStateMachine.c ****     
 447:/Users/marklee/Documents/xcode/avr/DTU/Robot_test/Robot_test/mainStateMachine.c ****     driveDistanceEncoder(5087);
 1193               	.LM143:
 1194 0508 8FED      		ldi r24,lo8(-33)
 1195 050a 93E1      		ldi r25,lo8(19)
 1196 050c 0E94 0000 		call driveDistanceEncoder
 448:/Users/marklee/Documents/xcode/avr/DTU/Robot_test/Robot_test/mainStateMachine.c ****     
 449:/Users/marklee/Documents/xcode/avr/DTU/Robot_test/Robot_test/mainStateMachine.c ****     // turn 90 degrees right
 450:/Users/marklee/Documents/xcode/avr/DTU/Robot_test/Robot_test/mainStateMachine.c ****     turn90degreesEncoder(RIGHT);
 1198               	.LM144:
 1199 0510 81E0      		ldi r24,lo8(1)
 1200 0512 90E0      		ldi r25,0
 1201 0514 0E94 0000 		call turn90degreesEncoder
 1202               	.LBB88:
 1203               	.LBB89:
 229:/Users/marklee/Documents/xcode/avr/DTU/Robot_test/Robot_test/mainStateMachine.c ****     driveDistanceEncoder(encoderValue);
 1205               	.LM145:
 1206 0518 83EE      		ldi r24,lo8(-29)
 1207 051a 9BE0      		ldi r25,lo8(11)
 1208 051c 0E94 0000 		call driveDistanceEncoder
 1209               	.LBE89:
 1210               	.LBE88:
 451:/Users/marklee/Documents/xcode/avr/DTU/Robot_test/Robot_test/mainStateMachine.c ****     
 452:/Users/marklee/Documents/xcode/avr/DTU/Robot_test/Robot_test/mainStateMachine.c ****     driveDistanceInCM(35);
 453:/Users/marklee/Documents/xcode/avr/DTU/Robot_test/Robot_test/mainStateMachine.c ****     stopTimeMs(300);
 1212               	.LM146:
 1213 0520 8CE2      		ldi r24,lo8(44)
 1214 0522 91E0      		ldi r25,lo8(1)
 1215 0524 0E94 0000 		call stopTimeMs
 454:/Users/marklee/Documents/xcode/avr/DTU/Robot_test/Robot_test/mainStateMachine.c ****     
 455:/Users/marklee/Documents/xcode/avr/DTU/Robot_test/Robot_test/mainStateMachine.c ****     turnSomeDegreesEncoder(RIGHT, 1000);
 1217               	.LM147:
 1218 0528 68EE      		ldi r22,lo8(-24)
 1219 052a 73E0      		ldi r23,lo8(3)
 1220 052c 81E0      		ldi r24,lo8(1)
 1221 052e 90E0      		ldi r25,0
 1222 0530 0E94 0000 		call turnSomeDegreesEncoder
 456:/Users/marklee/Documents/xcode/avr/DTU/Robot_test/Robot_test/mainStateMachine.c ****     stopTimeMs(300);
 1224               	.LM148:
 1225 0534 8CE2      		ldi r24,lo8(44)
 1226 0536 91E0      		ldi r25,lo8(1)
 1227 0538 0E94 0000 		call stopTimeMs
 1228               	.LBB90:
 1229               	.LBB91:
 229:/Users/marklee/Documents/xcode/avr/DTU/Robot_test/Robot_test/mainStateMachine.c ****     driveDistanceEncoder(encoderValue);
 1231               	.LM149:
 1232 053c 83EE      		ldi r24,lo8(-29)
 1233 053e 9BE0      		ldi r25,lo8(11)
 1234 0540 0E94 0000 		call driveDistanceEncoder
 1235               	.LBE91:
 1236               	.LBE90:
 457:/Users/marklee/Documents/xcode/avr/DTU/Robot_test/Robot_test/mainStateMachine.c ****     
 458:/Users/marklee/Documents/xcode/avr/DTU/Robot_test/Robot_test/mainStateMachine.c ****     driveDistanceInCM(35);
 459:/Users/marklee/Documents/xcode/avr/DTU/Robot_test/Robot_test/mainStateMachine.c ****     stopTimeMs(300);
 1238               	.LM150:
 1239 0544 8CE2      		ldi r24,lo8(44)
 1240 0546 91E0      		ldi r25,lo8(1)
 1241 0548 0E94 0000 		call stopTimeMs
 460:/Users/marklee/Documents/xcode/avr/DTU/Robot_test/Robot_test/mainStateMachine.c ****     
 461:/Users/marklee/Documents/xcode/avr/DTU/Robot_test/Robot_test/mainStateMachine.c ****     turnSomeDegreesEncoder(RIGHT, 1000);
 1243               	.LM151:
 1244 054c 68EE      		ldi r22,lo8(-24)
 1245 054e 73E0      		ldi r23,lo8(3)
 1246 0550 81E0      		ldi r24,lo8(1)
 1247 0552 90E0      		ldi r25,0
 1248 0554 0E94 0000 		call turnSomeDegreesEncoder
 462:/Users/marklee/Documents/xcode/avr/DTU/Robot_test/Robot_test/mainStateMachine.c ****     stopTimeMs(300);
 1250               	.LM152:
 1251 0558 8CE2      		ldi r24,lo8(44)
 1252 055a 91E0      		ldi r25,lo8(1)
 1253 055c 0E94 0000 		call stopTimeMs
 1254               	.LBB92:
 1255               	.LBB93:
 229:/Users/marklee/Documents/xcode/avr/DTU/Robot_test/Robot_test/mainStateMachine.c ****     driveDistanceEncoder(encoderValue);
 1257               	.LM153:
 1258 0560 8BEF      		ldi r24,lo8(-5)
 1259 0562 90E1      		ldi r25,lo8(16)
 1260 0564 0E94 0000 		call driveDistanceEncoder
 1261               	.LBE93:
 1262               	.LBE92:
 463:/Users/marklee/Documents/xcode/avr/DTU/Robot_test/Robot_test/mainStateMachine.c ****     
 464:/Users/marklee/Documents/xcode/avr/DTU/Robot_test/Robot_test/mainStateMachine.c ****     driveDistanceInCM(50);
 465:/Users/marklee/Documents/xcode/avr/DTU/Robot_test/Robot_test/mainStateMachine.c ****     stopTimeMs(300);
 1264               	.LM154:
 1265 0568 8CE2      		ldi r24,lo8(44)
 1266 056a 91E0      		ldi r25,lo8(1)
 1267 056c 0E94 0000 		call stopTimeMs
 466:/Users/marklee/Documents/xcode/avr/DTU/Robot_test/Robot_test/mainStateMachine.c ****     
 467:/Users/marklee/Documents/xcode/avr/DTU/Robot_test/Robot_test/mainStateMachine.c ****     turnSomeDegreesEncoder(RIGHT, 1000);
 1269               	.LM155:
 1270 0570 68EE      		ldi r22,lo8(-24)
 1271 0572 73E0      		ldi r23,lo8(3)
 1272 0574 81E0      		ldi r24,lo8(1)
 1273 0576 90E0      		ldi r25,0
 1274 0578 0E94 0000 		call turnSomeDegreesEncoder
 468:/Users/marklee/Documents/xcode/avr/DTU/Robot_test/Robot_test/mainStateMachine.c ****     stopTimeMs(300);
 1276               	.LM156:
 1277 057c 8CE2      		ldi r24,lo8(44)
 1278 057e 91E0      		ldi r25,lo8(1)
 1279 0580 0E94 0000 		call stopTimeMs
 1280               	.LBB94:
 1281               	.LBB95:
 229:/Users/marklee/Documents/xcode/avr/DTU/Robot_test/Robot_test/mainStateMachine.c ****     driveDistanceEncoder(encoderValue);
 1283               	.LM157:
 1284 0584 8AE3      		ldi r24,lo8(58)
 1285 0586 9CE0      		ldi r25,lo8(12)
 1286 0588 0E94 0000 		call driveDistanceEncoder
 1287               	.LBE95:
 1288               	.LBE94:
 469:/Users/marklee/Documents/xcode/avr/DTU/Robot_test/Robot_test/mainStateMachine.c ****     
 470:/Users/marklee/Documents/xcode/avr/DTU/Robot_test/Robot_test/mainStateMachine.c ****     driveDistanceInCM(36);
 471:/Users/marklee/Documents/xcode/avr/DTU/Robot_test/Robot_test/mainStateMachine.c ****     stopTimeMs(300);
 1290               	.LM158:
 1291 058c 8CE2      		ldi r24,lo8(44)
 1292 058e 91E0      		ldi r25,lo8(1)
 1293 0590 0E94 0000 		call stopTimeMs
 472:/Users/marklee/Documents/xcode/avr/DTU/Robot_test/Robot_test/mainStateMachine.c ****     
 473:/Users/marklee/Documents/xcode/avr/DTU/Robot_test/Robot_test/mainStateMachine.c ****     turnSomeDegreesEncoder(RIGHT, 1000);
 1295               	.LM159:
 1296 0594 68EE      		ldi r22,lo8(-24)
 1297 0596 73E0      		ldi r23,lo8(3)
 1298 0598 81E0      		ldi r24,lo8(1)
 1299 059a 90E0      		ldi r25,0
 1300 059c 0E94 0000 		call turnSomeDegreesEncoder
 474:/Users/marklee/Documents/xcode/avr/DTU/Robot_test/Robot_test/mainStateMachine.c ****     stopTimeMs(300);
 1302               	.LM160:
 1303 05a0 8CE2      		ldi r24,lo8(44)
 1304 05a2 91E0      		ldi r25,lo8(1)
 1305 05a4 0E94 0000 		call stopTimeMs
 1306               	.L104:
 475:/Users/marklee/Documents/xcode/avr/DTU/Robot_test/Robot_test/mainStateMachine.c ****     
 476:/Users/marklee/Documents/xcode/avr/DTU/Robot_test/Robot_test/mainStateMachine.c ****     
 477:/Users/marklee/Documents/xcode/avr/DTU/Robot_test/Robot_test/mainStateMachine.c ****     
 478:/Users/marklee/Documents/xcode/avr/DTU/Robot_test/Robot_test/mainStateMachine.c ****     while (!flag)
 479:/Users/marklee/Documents/xcode/avr/DTU/Robot_test/Robot_test/mainStateMachine.c ****     {
 480:/Users/marklee/Documents/xcode/avr/DTU/Robot_test/Robot_test/mainStateMachine.c ****         if (adjustSpeed)
 1308               	.LM161:
 1309 05a8 8091 0000 		lds r24,adjustSpeed
 1310 05ac 8823      		tst r24
 1311 05ae 01F0      		breq .L104
 481:/Users/marklee/Documents/xcode/avr/DTU/Robot_test/Robot_test/mainStateMachine.c ****         {
 482:/Users/marklee/Documents/xcode/avr/DTU/Robot_test/Robot_test/mainStateMachine.c ****             adjustSpeed = false;
 1313               	.LM162:
 1314 05b0 1092 0000 		sts adjustSpeed,__zero_reg__
 483:/Users/marklee/Documents/xcode/avr/DTU/Robot_test/Robot_test/mainStateMachine.c ****             LineSensors_check_all();
 1316               	.LM163:
 1317 05b4 0E94 0000 		call LineSensors_check_all
 484:/Users/marklee/Documents/xcode/avr/DTU/Robot_test/Robot_test/mainStateMachine.c ****             sendLineToInterface();
 1319               	.LM164:
 1320 05b8 0E94 0000 		call sendLineToInterface
 485:/Users/marklee/Documents/xcode/avr/DTU/Robot_test/Robot_test/mainStateMachine.c ****             
 486:/Users/marklee/Documents/xcode/avr/DTU/Robot_test/Robot_test/mainStateMachine.c ****             if (newLine == 15 || newLine == 7 || newLine == 14)
 1322               	.LM165:
 1323 05bc 8091 0000 		lds r24,newLine
 1324 05c0 9091 0000 		lds r25,newLine+1
 1325 05c4 0F97      		sbiw r24,15
 1326 05c6 01F0      		breq .L105
 1328               	.LM166:
 1329 05c8 8091 0000 		lds r24,newLine
 1330 05cc 9091 0000 		lds r25,newLine+1
 1331 05d0 0797      		sbiw r24,7
 1332 05d2 01F0      		breq .L105
 1333 05d4 8091 0000 		lds r24,newLine
 1334 05d8 9091 0000 		lds r25,newLine+1
 1335 05dc 0E97      		sbiw r24,14
 1336 05de 01F0      		breq .+2
 1337 05e0 00C0      		rjmp .L106
 1338               	.L105:
 487:/Users/marklee/Documents/xcode/avr/DTU/Robot_test/Robot_test/mainStateMachine.c ****             {
 488:/Users/marklee/Documents/xcode/avr/DTU/Robot_test/Robot_test/mainStateMachine.c ****                 
 489:/Users/marklee/Documents/xcode/avr/DTU/Robot_test/Robot_test/mainStateMachine.c ****                 if (newLine == 7)
 1340               	.LM167:
 1341 05e2 8091 0000 		lds r24,newLine
 1342 05e6 9091 0000 		lds r25,newLine+1
 1343 05ea 0797      		sbiw r24,7
 1344 05ec 01F0      		breq .L112
 1345               	.L114:
 490:/Users/marklee/Documents/xcode/avr/DTU/Robot_test/Robot_test/mainStateMachine.c ****                 {
 491:/Users/marklee/Documents/xcode/avr/DTU/Robot_test/Robot_test/mainStateMachine.c **** //                    driveDistanceInCM(1);
 492:/Users/marklee/Documents/xcode/avr/DTU/Robot_test/Robot_test/mainStateMachine.c ****                     
 493:/Users/marklee/Documents/xcode/avr/DTU/Robot_test/Robot_test/mainStateMachine.c ****                     while (!(newLine == 15))
 494:/Users/marklee/Documents/xcode/avr/DTU/Robot_test/Robot_test/mainStateMachine.c ****                     {
 495:/Users/marklee/Documents/xcode/avr/DTU/Robot_test/Robot_test/mainStateMachine.c ****                         if (adjustSpeed)
 496:/Users/marklee/Documents/xcode/avr/DTU/Robot_test/Robot_test/mainStateMachine.c ****                         {
 497:/Users/marklee/Documents/xcode/avr/DTU/Robot_test/Robot_test/mainStateMachine.c ****                             adjustSpeed = false;
 498:/Users/marklee/Documents/xcode/avr/DTU/Robot_test/Robot_test/mainStateMachine.c ****                             LineSensors_check_all();
 499:/Users/marklee/Documents/xcode/avr/DTU/Robot_test/Robot_test/mainStateMachine.c ****                             sendLineToInterface();
 500:/Users/marklee/Documents/xcode/avr/DTU/Robot_test/Robot_test/mainStateMachine.c ****                             drive(TURN_LEFT_TO_LINE, speed);
 501:/Users/marklee/Documents/xcode/avr/DTU/Robot_test/Robot_test/mainStateMachine.c ****                         }
 502:/Users/marklee/Documents/xcode/avr/DTU/Robot_test/Robot_test/mainStateMachine.c ****                     }
 503:/Users/marklee/Documents/xcode/avr/DTU/Robot_test/Robot_test/mainStateMachine.c ****                     
 504:/Users/marklee/Documents/xcode/avr/DTU/Robot_test/Robot_test/mainStateMachine.c ****                 }
 505:/Users/marklee/Documents/xcode/avr/DTU/Robot_test/Robot_test/mainStateMachine.c ****                 
 506:/Users/marklee/Documents/xcode/avr/DTU/Robot_test/Robot_test/mainStateMachine.c ****                 if (newLine == 14)
 1347               	.LM168:
 1348 05ee 8091 0000 		lds r24,newLine
 1349 05f2 9091 0000 		lds r25,newLine+1
 1350 05f6 0E97      		sbiw r24,14
 1351 05f8 01F4      		brne .L109
 1352 05fa 00C0      		rjmp .L118
 1353               	.L113:
 495:/Users/marklee/Documents/xcode/avr/DTU/Robot_test/Robot_test/mainStateMachine.c ****                         if (adjustSpeed)
 1355               	.LM169:
 1356 05fc 8091 0000 		lds r24,adjustSpeed
 1357 0600 8823      		tst r24
 1358 0602 01F0      		breq .L112
 497:/Users/marklee/Documents/xcode/avr/DTU/Robot_test/Robot_test/mainStateMachine.c ****                             adjustSpeed = false;
 1360               	.LM170:
 1361 0604 1092 0000 		sts adjustSpeed,__zero_reg__
 498:/Users/marklee/Documents/xcode/avr/DTU/Robot_test/Robot_test/mainStateMachine.c ****                             LineSensors_check_all();
 1363               	.LM171:
 1364 0608 0E94 0000 		call LineSensors_check_all
 499:/Users/marklee/Documents/xcode/avr/DTU/Robot_test/Robot_test/mainStateMachine.c ****                             sendLineToInterface();
 1366               	.LM172:
 1367 060c 0E94 0000 		call sendLineToInterface
 500:/Users/marklee/Documents/xcode/avr/DTU/Robot_test/Robot_test/mainStateMachine.c ****                             drive(TURN_LEFT_TO_LINE, speed);
 1369               	.LM173:
 1370 0610 6091 0000 		lds r22,speed
 1371 0614 7091 0000 		lds r23,speed+1
 1372 0618 89E0      		ldi r24,lo8(9)
 1373 061a 90E0      		ldi r25,0
 1374 061c 0E94 0000 		call drive
 1375               	.L112:
 493:/Users/marklee/Documents/xcode/avr/DTU/Robot_test/Robot_test/mainStateMachine.c ****                     while (!(newLine == 15))
 1377               	.LM174:
 1378 0620 8091 0000 		lds r24,newLine
 1379 0624 9091 0000 		lds r25,newLine+1
 1380 0628 0F97      		sbiw r24,15
 1381 062a 01F4      		brne .L113
 1382 062c 00C0      		rjmp .L114
 1383               	.L119:
 507:/Users/marklee/Documents/xcode/avr/DTU/Robot_test/Robot_test/mainStateMachine.c ****                 {
 508:/Users/marklee/Documents/xcode/avr/DTU/Robot_test/Robot_test/mainStateMachine.c **** //                    driveDistanceInCM(1);
 509:/Users/marklee/Documents/xcode/avr/DTU/Robot_test/Robot_test/mainStateMachine.c ****                     
 510:/Users/marklee/Documents/xcode/avr/DTU/Robot_test/Robot_test/mainStateMachine.c ****                     while (!(newLine == 15))
 511:/Users/marklee/Documents/xcode/avr/DTU/Robot_test/Robot_test/mainStateMachine.c ****                     {
 512:/Users/marklee/Documents/xcode/avr/DTU/Robot_test/Robot_test/mainStateMachine.c ****                         if (adjustSpeed)
 1385               	.LM175:
 1386 062e 8091 0000 		lds r24,adjustSpeed
 1387 0632 8823      		tst r24
 1388 0634 01F0      		breq .L118
 513:/Users/marklee/Documents/xcode/avr/DTU/Robot_test/Robot_test/mainStateMachine.c ****                         {
 514:/Users/marklee/Documents/xcode/avr/DTU/Robot_test/Robot_test/mainStateMachine.c ****                             adjustSpeed = false;
 1390               	.LM176:
 1391 0636 1092 0000 		sts adjustSpeed,__zero_reg__
 515:/Users/marklee/Documents/xcode/avr/DTU/Robot_test/Robot_test/mainStateMachine.c ****                             LineSensors_check_all();
 1393               	.LM177:
 1394 063a 0E94 0000 		call LineSensors_check_all
 516:/Users/marklee/Documents/xcode/avr/DTU/Robot_test/Robot_test/mainStateMachine.c ****                             sendLineToInterface();
 1396               	.LM178:
 1397 063e 0E94 0000 		call sendLineToInterface
 517:/Users/marklee/Documents/xcode/avr/DTU/Robot_test/Robot_test/mainStateMachine.c ****                             drive(TURN_RIGHT_TO_LINE, speed);
 1399               	.LM179:
 1400 0642 6091 0000 		lds r22,speed
 1401 0646 7091 0000 		lds r23,speed+1
 1402 064a 8AE0      		ldi r24,lo8(10)
 1403 064c 90E0      		ldi r25,0
 1404 064e 0E94 0000 		call drive
 1405               	.L118:
 510:/Users/marklee/Documents/xcode/avr/DTU/Robot_test/Robot_test/mainStateMachine.c ****                     while (!(newLine == 15))
 1407               	.LM180:
 1408 0652 8091 0000 		lds r24,newLine
 1409 0656 9091 0000 		lds r25,newLine+1
 1410 065a 0F97      		sbiw r24,15
 1411 065c 01F4      		brne .L119
 1412               	.L109:
 518:/Users/marklee/Documents/xcode/avr/DTU/Robot_test/Robot_test/mainStateMachine.c ****                         }
 519:/Users/marklee/Documents/xcode/avr/DTU/Robot_test/Robot_test/mainStateMachine.c ****                     }
 520:/Users/marklee/Documents/xcode/avr/DTU/Robot_test/Robot_test/mainStateMachine.c ****                     
 521:/Users/marklee/Documents/xcode/avr/DTU/Robot_test/Robot_test/mainStateMachine.c ****                 }
 522:/Users/marklee/Documents/xcode/avr/DTU/Robot_test/Robot_test/mainStateMachine.c ****                 
 523:/Users/marklee/Documents/xcode/avr/DTU/Robot_test/Robot_test/mainStateMachine.c ****                 sendUartToInterface('H', "Line found");
 1414               	.LM181:
 1415 065e 60E0      		ldi r22,lo8(.LC17)
 1416 0660 70E0      		ldi r23,hi8(.LC17)
 1417 0662 88E4      		ldi r24,lo8(72)
 1418 0664 0E94 0000 		call sendUartToInterface
 524:/Users/marklee/Documents/xcode/avr/DTU/Robot_test/Robot_test/mainStateMachine.c ****                 flag = 1;
 1420               	.LM182:
 1421 0668 81E0      		ldi r24,lo8(1)
 1422 066a 90E0      		ldi r25,0
 1423 066c 00C0      		rjmp .L115
 1424               	.L106:
 525:/Users/marklee/Documents/xcode/avr/DTU/Robot_test/Robot_test/mainStateMachine.c ****             }
 526:/Users/marklee/Documents/xcode/avr/DTU/Robot_test/Robot_test/mainStateMachine.c ****             else
 527:/Users/marklee/Documents/xcode/avr/DTU/Robot_test/Robot_test/mainStateMachine.c ****             {
 528:/Users/marklee/Documents/xcode/avr/DTU/Robot_test/Robot_test/mainStateMachine.c ****                 drive(FORWARD, speed); // Straight outta Compton
 1426               	.LM183:
 1427 066e 6091 0000 		lds r22,speed
 1428 0672 7091 0000 		lds r23,speed+1
 1429 0676 80E0      		ldi r24,0
 1430 0678 90E0      		ldi r25,0
 1431 067a 0E94 0000 		call drive
 1432 067e 80E0      		ldi r24,0
 1433 0680 90E0      		ldi r25,0
 1434               	.L115:
 529:/Users/marklee/Documents/xcode/avr/DTU/Robot_test/Robot_test/mainStateMachine.c ****             }
 530:/Users/marklee/Documents/xcode/avr/DTU/Robot_test/Robot_test/mainStateMachine.c ****             prevLine = newLine;
 1436               	.LM184:
 1437 0682 2091 0000 		lds r18,newLine
 1438 0686 3091 0000 		lds r19,newLine+1
 1439 068a 3093 0000 		sts prevLine+1,r19
 1440 068e 2093 0000 		sts prevLine,r18
 478:/Users/marklee/Documents/xcode/avr/DTU/Robot_test/Robot_test/mainStateMachine.c ****     while (!flag)
 1442               	.LM185:
 1443 0692 892B      		or r24,r25
 1444 0694 01F4      		brne .+2
 1445 0696 00C0      		rjmp .L104
 1446               	.LBB96:
 1447               	.LBB97:
 229:/Users/marklee/Documents/xcode/avr/DTU/Robot_test/Robot_test/mainStateMachine.c ****     driveDistanceEncoder(encoderValue);
 1449               	.LM186:
 1450 0698 83EE      		ldi r24,lo8(-29)
 1451 069a 9BE0      		ldi r25,lo8(11)
 1452 069c 0E94 0000 		call driveDistanceEncoder
 1453               	.LBE97:
 1454               	.LBE96:
 531:/Users/marklee/Documents/xcode/avr/DTU/Robot_test/Robot_test/mainStateMachine.c ****         }
 532:/Users/marklee/Documents/xcode/avr/DTU/Robot_test/Robot_test/mainStateMachine.c ****     }
 533:/Users/marklee/Documents/xcode/avr/DTU/Robot_test/Robot_test/mainStateMachine.c **** 
 534:/Users/marklee/Documents/xcode/avr/DTU/Robot_test/Robot_test/mainStateMachine.c ****     flag = 0;
 535:/Users/marklee/Documents/xcode/avr/DTU/Robot_test/Robot_test/mainStateMachine.c ****     
 536:/Users/marklee/Documents/xcode/avr/DTU/Robot_test/Robot_test/mainStateMachine.c ****     driveDistanceInCM(35);
 537:/Users/marklee/Documents/xcode/avr/DTU/Robot_test/Robot_test/mainStateMachine.c ****     stopTimeMs(300);
 1456               	.LM187:
 1457 06a0 8CE2      		ldi r24,lo8(44)
 1458 06a2 91E0      		ldi r25,lo8(1)
 1459 06a4 0E94 0000 		call stopTimeMs
 538:/Users/marklee/Documents/xcode/avr/DTU/Robot_test/Robot_test/mainStateMachine.c ****     
 539:/Users/marklee/Documents/xcode/avr/DTU/Robot_test/Robot_test/mainStateMachine.c ****     turnSomeDegreesEncoder(RIGHT, 1000);
 1461               	.LM188:
 1462 06a8 68EE      		ldi r22,lo8(-24)
 1463 06aa 73E0      		ldi r23,lo8(3)
 1464 06ac 81E0      		ldi r24,lo8(1)
 1465 06ae 90E0      		ldi r25,0
 1466 06b0 0E94 0000 		call turnSomeDegreesEncoder
 540:/Users/marklee/Documents/xcode/avr/DTU/Robot_test/Robot_test/mainStateMachine.c ****     stopTimeMs(300);
 1468               	.LM189:
 1469 06b4 8CE2      		ldi r24,lo8(44)
 1470 06b6 91E0      		ldi r25,lo8(1)
 1471 06b8 0E94 0000 		call stopTimeMs
 1472               	.LBB98:
 1473               	.LBB99:
 229:/Users/marklee/Documents/xcode/avr/DTU/Robot_test/Robot_test/mainStateMachine.c ****     driveDistanceEncoder(encoderValue);
 1475               	.LM190:
 1476 06bc 8AE3      		ldi r24,lo8(58)
 1477 06be 9CE0      		ldi r25,lo8(12)
 1478 06c0 0E94 0000 		call driveDistanceEncoder
 1479               	.LBE99:
 1480               	.LBE98:
 541:/Users/marklee/Documents/xcode/avr/DTU/Robot_test/Robot_test/mainStateMachine.c ****     
 542:/Users/marklee/Documents/xcode/avr/DTU/Robot_test/Robot_test/mainStateMachine.c ****     driveDistanceInCM(36);
 543:/Users/marklee/Documents/xcode/avr/DTU/Robot_test/Robot_test/mainStateMachine.c ****     stopTimeMs(300);
 1482               	.LM191:
 1483 06c4 8CE2      		ldi r24,lo8(44)
 1484 06c6 91E0      		ldi r25,lo8(1)
 1485 06c8 0E94 0000 		call stopTimeMs
 544:/Users/marklee/Documents/xcode/avr/DTU/Robot_test/Robot_test/mainStateMachine.c **** 
 545:/Users/marklee/Documents/xcode/avr/DTU/Robot_test/Robot_test/mainStateMachine.c ****     turnSomeDegreesEncoder(RIGHT, 1000);
 1487               	.LM192:
 1488 06cc 68EE      		ldi r22,lo8(-24)
 1489 06ce 73E0      		ldi r23,lo8(3)
 1490 06d0 81E0      		ldi r24,lo8(1)
 1491 06d2 90E0      		ldi r25,0
 1492 06d4 0E94 0000 		call turnSomeDegreesEncoder
 546:/Users/marklee/Documents/xcode/avr/DTU/Robot_test/Robot_test/mainStateMachine.c ****     stopTimeMs(300);
 1494               	.LM193:
 1495 06d8 8CE2      		ldi r24,lo8(44)
 1496 06da 91E0      		ldi r25,lo8(1)
 1497 06dc 0E94 0000 		call stopTimeMs
 1498               	.LBB100:
 1499               	.LBB101:
 229:/Users/marklee/Documents/xcode/avr/DTU/Robot_test/Robot_test/mainStateMachine.c ****     driveDistanceEncoder(encoderValue);
 1501               	.LM194:
 1502 06e0 8BEF      		ldi r24,lo8(-5)
 1503 06e2 90E1      		ldi r25,lo8(16)
 1504 06e4 0E94 0000 		call driveDistanceEncoder
 1505               	.LBE101:
 1506               	.LBE100:
 547:/Users/marklee/Documents/xcode/avr/DTU/Robot_test/Robot_test/mainStateMachine.c ****     
 548:/Users/marklee/Documents/xcode/avr/DTU/Robot_test/Robot_test/mainStateMachine.c ****     driveDistanceInCM(50);
 549:/Users/marklee/Documents/xcode/avr/DTU/Robot_test/Robot_test/mainStateMachine.c ****     stopTimeMs(300);
 1508               	.LM195:
 1509 06e8 8CE2      		ldi r24,lo8(44)
 1510 06ea 91E0      		ldi r25,lo8(1)
 1511 06ec 0E94 0000 		call stopTimeMs
 550:/Users/marklee/Documents/xcode/avr/DTU/Robot_test/Robot_test/mainStateMachine.c ****     
 551:/Users/marklee/Documents/xcode/avr/DTU/Robot_test/Robot_test/mainStateMachine.c ****     turnSomeDegreesEncoder(RIGHT, 1000);
 1513               	.LM196:
 1514 06f0 68EE      		ldi r22,lo8(-24)
 1515 06f2 73E0      		ldi r23,lo8(3)
 1516 06f4 81E0      		ldi r24,lo8(1)
 1517 06f6 90E0      		ldi r25,0
 1518 06f8 0E94 0000 		call turnSomeDegreesEncoder
 552:/Users/marklee/Documents/xcode/avr/DTU/Robot_test/Robot_test/mainStateMachine.c ****     stopTimeMs(300);
 1520               	.LM197:
 1521 06fc 8CE2      		ldi r24,lo8(44)
 1522 06fe 91E0      		ldi r25,lo8(1)
 1523 0700 0E94 0000 		call stopTimeMs
 1524               	.LBB102:
 1525               	.LBB103:
 229:/Users/marklee/Documents/xcode/avr/DTU/Robot_test/Robot_test/mainStateMachine.c ****     driveDistanceEncoder(encoderValue);
 1527               	.LM198:
 1528 0704 8AE3      		ldi r24,lo8(58)
 1529 0706 9CE0      		ldi r25,lo8(12)
 1530 0708 0E94 0000 		call driveDistanceEncoder
 1531               	.LBE103:
 1532               	.LBE102:
 553:/Users/marklee/Documents/xcode/avr/DTU/Robot_test/Robot_test/mainStateMachine.c ****     
 554:/Users/marklee/Documents/xcode/avr/DTU/Robot_test/Robot_test/mainStateMachine.c ****     driveDistanceInCM(36);
 555:/Users/marklee/Documents/xcode/avr/DTU/Robot_test/Robot_test/mainStateMachine.c ****     stopTimeMs(300);
 1534               	.LM199:
 1535 070c 8CE2      		ldi r24,lo8(44)
 1536 070e 91E0      		ldi r25,lo8(1)
 1537 0710 0E94 0000 		call stopTimeMs
 556:/Users/marklee/Documents/xcode/avr/DTU/Robot_test/Robot_test/mainStateMachine.c ****     
 557:/Users/marklee/Documents/xcode/avr/DTU/Robot_test/Robot_test/mainStateMachine.c ****     turnSomeDegreesEncoder(RIGHT, 1000);
 1539               	.LM200:
 1540 0714 68EE      		ldi r22,lo8(-24)
 1541 0716 73E0      		ldi r23,lo8(3)
 1542 0718 81E0      		ldi r24,lo8(1)
 1543 071a 90E0      		ldi r25,0
 1544 071c 0E94 0000 		call turnSomeDegreesEncoder
 558:/Users/marklee/Documents/xcode/avr/DTU/Robot_test/Robot_test/mainStateMachine.c ****     stopTimeMs(300);
 1546               	.LM201:
 1547 0720 8CE2      		ldi r24,lo8(44)
 1548 0722 91E0      		ldi r25,lo8(1)
 1549 0724 0E94 0000 		call stopTimeMs
 1550               	.L123:
 559:/Users/marklee/Documents/xcode/avr/DTU/Robot_test/Robot_test/mainStateMachine.c ****     
 560:/Users/marklee/Documents/xcode/avr/DTU/Robot_test/Robot_test/mainStateMachine.c **** //    driveDistanceInCM(25);
 561:/Users/marklee/Documents/xcode/avr/DTU/Robot_test/Robot_test/mainStateMachine.c **** //    stopTimeMs(300);
 562:/Users/marklee/Documents/xcode/avr/DTU/Robot_test/Robot_test/mainStateMachine.c ****     
 563:/Users/marklee/Documents/xcode/avr/DTU/Robot_test/Robot_test/mainStateMachine.c ****     
 564:/Users/marklee/Documents/xcode/avr/DTU/Robot_test/Robot_test/mainStateMachine.c ****     while (!flag)
 565:/Users/marklee/Documents/xcode/avr/DTU/Robot_test/Robot_test/mainStateMachine.c ****     {
 566:/Users/marklee/Documents/xcode/avr/DTU/Robot_test/Robot_test/mainStateMachine.c ****         if (adjustSpeed)
 1552               	.LM202:
 1553 0728 8091 0000 		lds r24,adjustSpeed
 1554 072c 8823      		tst r24
 1555 072e 01F0      		breq .L123
 567:/Users/marklee/Documents/xcode/avr/DTU/Robot_test/Robot_test/mainStateMachine.c ****         {
 568:/Users/marklee/Documents/xcode/avr/DTU/Robot_test/Robot_test/mainStateMachine.c ****             adjustSpeed = false;
 1557               	.LM203:
 1558 0730 1092 0000 		sts adjustSpeed,__zero_reg__
 569:/Users/marklee/Documents/xcode/avr/DTU/Robot_test/Robot_test/mainStateMachine.c ****             LineSensors_check_all();
 1560               	.LM204:
 1561 0734 0E94 0000 		call LineSensors_check_all
 570:/Users/marklee/Documents/xcode/avr/DTU/Robot_test/Robot_test/mainStateMachine.c ****             sendLineToInterface();
 1563               	.LM205:
 1564 0738 0E94 0000 		call sendLineToInterface
 571:/Users/marklee/Documents/xcode/avr/DTU/Robot_test/Robot_test/mainStateMachine.c ****         
 572:/Users/marklee/Documents/xcode/avr/DTU/Robot_test/Robot_test/mainStateMachine.c ****             if (newLine == 15 || newLine == 7 || newLine == 14)
 1566               	.LM206:
 1567 073c 8091 0000 		lds r24,newLine
 1568 0740 9091 0000 		lds r25,newLine+1
 1569 0744 0F97      		sbiw r24,15
 1570 0746 01F0      		breq .L124
 1572               	.LM207:
 1573 0748 8091 0000 		lds r24,newLine
 1574 074c 9091 0000 		lds r25,newLine+1
 1575 0750 0797      		sbiw r24,7
 1576 0752 01F0      		breq .L124
 1577 0754 8091 0000 		lds r24,newLine
 1578 0758 9091 0000 		lds r25,newLine+1
 1579 075c 0E97      		sbiw r24,14
 1580 075e 01F4      		brne .L125
 1581               	.L124:
 573:/Users/marklee/Documents/xcode/avr/DTU/Robot_test/Robot_test/mainStateMachine.c ****             {
 574:/Users/marklee/Documents/xcode/avr/DTU/Robot_test/Robot_test/mainStateMachine.c ****                 sendUartToInterface('H', "Line found");
 1583               	.LM208:
 1584 0760 60E0      		ldi r22,lo8(.LC17)
 1585 0762 70E0      		ldi r23,hi8(.LC17)
 1586 0764 88E4      		ldi r24,lo8(72)
 1587 0766 0E94 0000 		call sendUartToInterface
 575:/Users/marklee/Documents/xcode/avr/DTU/Robot_test/Robot_test/mainStateMachine.c ****                 flag = 1;
 1589               	.LM209:
 1590 076a 81E0      		ldi r24,lo8(1)
 1591 076c 90E0      		ldi r25,0
 1592 076e 00C0      		rjmp .L126
 1593               	.L125:
 576:/Users/marklee/Documents/xcode/avr/DTU/Robot_test/Robot_test/mainStateMachine.c ****             }
 577:/Users/marklee/Documents/xcode/avr/DTU/Robot_test/Robot_test/mainStateMachine.c ****             else
 578:/Users/marklee/Documents/xcode/avr/DTU/Robot_test/Robot_test/mainStateMachine.c ****             {
 579:/Users/marklee/Documents/xcode/avr/DTU/Robot_test/Robot_test/mainStateMachine.c ****                 drive(FORWARD, speed); // Straight outta Compton
 1595               	.LM210:
 1596 0770 6091 0000 		lds r22,speed
 1597 0774 7091 0000 		lds r23,speed+1
 1598 0778 80E0      		ldi r24,0
 1599 077a 90E0      		ldi r25,0
 1600 077c 0E94 0000 		call drive
 1601 0780 80E0      		ldi r24,0
 1602 0782 90E0      		ldi r25,0
 1603               	.L126:
 580:/Users/marklee/Documents/xcode/avr/DTU/Robot_test/Robot_test/mainStateMachine.c ****             }
 581:/Users/marklee/Documents/xcode/avr/DTU/Robot_test/Robot_test/mainStateMachine.c ****             prevLine = newLine;
 1605               	.LM211:
 1606 0784 2091 0000 		lds r18,newLine
 1607 0788 3091 0000 		lds r19,newLine+1
 1608 078c 3093 0000 		sts prevLine+1,r19
 1609 0790 2093 0000 		sts prevLine,r18
 564:/Users/marklee/Documents/xcode/avr/DTU/Robot_test/Robot_test/mainStateMachine.c ****     while (!flag)
 1611               	.LM212:
 1612 0794 892B      		or r24,r25
 1613 0796 01F0      		breq .L123
 582:/Users/marklee/Documents/xcode/avr/DTU/Robot_test/Robot_test/mainStateMachine.c ****         }
 583:/Users/marklee/Documents/xcode/avr/DTU/Robot_test/Robot_test/mainStateMachine.c ****     }
 584:/Users/marklee/Documents/xcode/avr/DTU/Robot_test/Robot_test/mainStateMachine.c ****     
 585:/Users/marklee/Documents/xcode/avr/DTU/Robot_test/Robot_test/mainStateMachine.c ****     turnToLine(LEFT);
 1615               	.LM213:
 1616 0798 80E0      		ldi r24,0
 1617 079a 90E0      		ldi r25,0
 1618 079c 0E94 0000 		call turnToLine
 586:/Users/marklee/Documents/xcode/avr/DTU/Robot_test/Robot_test/mainStateMachine.c **** 
 587:/Users/marklee/Documents/xcode/avr/DTU/Robot_test/Robot_test/mainStateMachine.c **** //    stopTimeMs(500);
 588:/Users/marklee/Documents/xcode/avr/DTU/Robot_test/Robot_test/mainStateMachine.c **** //    
 589:/Users/marklee/Documents/xcode/avr/DTU/Robot_test/Robot_test/mainStateMachine.c **** //    uart1_puts("W\r\n");    // send turret to 90 degrees
 590:/Users/marklee/Documents/xcode/avr/DTU/Robot_test/Robot_test/mainStateMachine.c **** //    
 591:/Users/marklee/Documents/xcode/avr/DTU/Robot_test/Robot_test/mainStateMachine.c **** //    stopTimeMs(4000);
 592:/Users/marklee/Documents/xcode/avr/DTU/Robot_test/Robot_test/mainStateMachine.c **** 
 593:/Users/marklee/Documents/xcode/avr/DTU/Robot_test/Robot_test/mainStateMachine.c ****     
 594:/Users/marklee/Documents/xcode/avr/DTU/Robot_test/Robot_test/mainStateMachine.c ****     fullCircleDone = 1;
 1620               	.LM214:
 1621 07a0 81E0      		ldi r24,lo8(1)
 1622 07a2 90E0      		ldi r25,0
 1623 07a4 9093 0000 		sts fullCircleDone+1,r25
 1624 07a8 8093 0000 		sts fullCircleDone,r24
 1625 07ac 0895      		ret
 1627               	.Lscope13:
 1628               		.section	.rodata.str1.1
 1629               	.LC19:
 1630 026a 4675 6C6C 		.string	"Full circle function"
 1630      2063 6972 
 1630      636C 6520 
 1630      6675 6E63 
 1630      7469 6F6E 
 1631               	.LC20:
 1632 027f 6C69 6E65 		.string	"linecount++"
 1632      636F 756E 
 1632      742B 2B00 
 1633               	.LC21:
 1634 028b 6272 6561 		.string	"break"
 1634      6B00 
 1635               	.LC22:
 1636 0291 4675 6C6C 		.string	"Full circle done"
 1636      2063 6972 
 1636      636C 6520 
 1636      646F 6E65 
 1636      00
 1637               		.text
 1639               	.global	fullCircle
 1641               	fullCircle:
 595:/Users/marklee/Documents/xcode/avr/DTU/Robot_test/Robot_test/mainStateMachine.c **** 
 596:/Users/marklee/Documents/xcode/avr/DTU/Robot_test/Robot_test/mainStateMachine.c **** }
 597:/Users/marklee/Documents/xcode/avr/DTU/Robot_test/Robot_test/mainStateMachine.c **** 
 598:/Users/marklee/Documents/xcode/avr/DTU/Robot_test/Robot_test/mainStateMachine.c **** void fullCircle(void)
 599:/Users/marklee/Documents/xcode/avr/DTU/Robot_test/Robot_test/mainStateMachine.c **** {
 1643               	.LM215:
 1644               	.LFBB14:
 1645 07ae EF92      		push r14
 1646 07b0 FF92      		push r15
 1647 07b2 0F93      		push r16
 1648 07b4 1F93      		push r17
 1649 07b6 CF93      		push r28
 1650 07b8 DF93      		push r29
 1651 07ba 1F92      		push __zero_reg__
 1652 07bc 1F92      		push __zero_reg__
 1653 07be CDB7      		in r28,__SP_L__
 1654 07c0 DEB7      		in r29,__SP_H__
 1655               	/* prologue: function */
 1656               	/* frame size = 2 */
 1657               	/* stack size = 8 */
 1658               	.L__stack_usage = 8
 600:/Users/marklee/Documents/xcode/avr/DTU/Robot_test/Robot_test/mainStateMachine.c ****     sendUartToInterface('H', "Full circle function");
 1660               	.LM216:
 1661 07c2 60E0      		ldi r22,lo8(.LC19)
 1662 07c4 70E0      		ldi r23,hi8(.LC19)
 1663 07c6 88E4      		ldi r24,lo8(72)
 1664 07c8 0E94 0000 		call sendUartToInterface
 601:/Users/marklee/Documents/xcode/avr/DTU/Robot_test/Robot_test/mainStateMachine.c ****     volatile int lineCount = 0;
 1666               	.LM217:
 1667 07cc 1A82      		std Y+2,__zero_reg__
 1668 07ce 1982      		std Y+1,__zero_reg__
 602:/Users/marklee/Documents/xcode/avr/DTU/Robot_test/Robot_test/mainStateMachine.c **** 
 603:/Users/marklee/Documents/xcode/avr/DTU/Robot_test/Robot_test/mainStateMachine.c ****     // drive forward 58.5 cm 585/0.115 = 5087
 604:/Users/marklee/Documents/xcode/avr/DTU/Robot_test/Robot_test/mainStateMachine.c ****     driveDistanceEncoder(5087);
 1670               	.LM218:
 1671 07d0 8FED      		ldi r24,lo8(-33)
 1672 07d2 93E1      		ldi r25,lo8(19)
 1673 07d4 0E94 0000 		call driveDistanceEncoder
 605:/Users/marklee/Documents/xcode/avr/DTU/Robot_test/Robot_test/mainStateMachine.c **** //        driveDistanceEncoder(15087);
 606:/Users/marklee/Documents/xcode/avr/DTU/Robot_test/Robot_test/mainStateMachine.c ****     
 607:/Users/marklee/Documents/xcode/avr/DTU/Robot_test/Robot_test/mainStateMachine.c ****     LineSensors_check_all();
 1675               	.LM219:
 1676 07d8 0E94 0000 		call LineSensors_check_all
 608:/Users/marklee/Documents/xcode/avr/DTU/Robot_test/Robot_test/mainStateMachine.c ****     
 609:/Users/marklee/Documents/xcode/avr/DTU/Robot_test/Robot_test/mainStateMachine.c ****     // turn 90 degrees right
 610:/Users/marklee/Documents/xcode/avr/DTU/Robot_test/Robot_test/mainStateMachine.c ****     turn90degreesEncoder(RIGHT);
 1678               	.LM220:
 1679 07dc 81E0      		ldi r24,lo8(1)
 1680 07de 90E0      		ldi r25,0
 1681 07e0 0E94 0000 		call turn90degreesEncoder
 611:/Users/marklee/Documents/xcode/avr/DTU/Robot_test/Robot_test/mainStateMachine.c ****     
 612:/Users/marklee/Documents/xcode/avr/DTU/Robot_test/Robot_test/mainStateMachine.c ****     newLine = 0;
 1683               	.LM221:
 1684 07e4 1092 0000 		sts newLine+1,__zero_reg__
 1685 07e8 1092 0000 		sts newLine,__zero_reg__
 613:/Users/marklee/Documents/xcode/avr/DTU/Robot_test/Robot_test/mainStateMachine.c ****     
 614:/Users/marklee/Documents/xcode/avr/DTU/Robot_test/Robot_test/mainStateMachine.c ****     driveDistanceEncoder(435); // 5 cm
 1687               	.LM222:
 1688 07ec 83EB      		ldi r24,lo8(-77)
 1689 07ee 91E0      		ldi r25,lo8(1)
 1690 07f0 0E94 0000 		call driveDistanceEncoder
 615:/Users/marklee/Documents/xcode/avr/DTU/Robot_test/Robot_test/mainStateMachine.c ****         
 616:/Users/marklee/Documents/xcode/avr/DTU/Robot_test/Robot_test/mainStateMachine.c ****     while (1)
 617:/Users/marklee/Documents/xcode/avr/DTU/Robot_test/Robot_test/mainStateMachine.c ****     {
 618:/Users/marklee/Documents/xcode/avr/DTU/Robot_test/Robot_test/mainStateMachine.c ****         
 619:/Users/marklee/Documents/xcode/avr/DTU/Robot_test/Robot_test/mainStateMachine.c ****         while (!adjustSpeed);
 620:/Users/marklee/Documents/xcode/avr/DTU/Robot_test/Robot_test/mainStateMachine.c ****         if (adjustSpeed)
 621:/Users/marklee/Documents/xcode/avr/DTU/Robot_test/Robot_test/mainStateMachine.c ****         {
 622:/Users/marklee/Documents/xcode/avr/DTU/Robot_test/Robot_test/mainStateMachine.c ****             adjustSpeed = false;
 623:/Users/marklee/Documents/xcode/avr/DTU/Robot_test/Robot_test/mainStateMachine.c ****             LineSensors_check_all();
 624:/Users/marklee/Documents/xcode/avr/DTU/Robot_test/Robot_test/mainStateMachine.c ****             sendLineToInterface();
 625:/Users/marklee/Documents/xcode/avr/DTU/Robot_test/Robot_test/mainStateMachine.c ****             drive(12, 160); // 70
 626:/Users/marklee/Documents/xcode/avr/DTU/Robot_test/Robot_test/mainStateMachine.c ****         }
 627:/Users/marklee/Documents/xcode/avr/DTU/Robot_test/Robot_test/mainStateMachine.c ****         if ((newLine == 15 || newLine == 14 || newLine == 12 || newLine == 8) && lineCount == 0)
 628:/Users/marklee/Documents/xcode/avr/DTU/Robot_test/Robot_test/mainStateMachine.c ****         {
 629:/Users/marklee/Documents/xcode/avr/DTU/Robot_test/Robot_test/mainStateMachine.c ****             sendUartToInterface('H', "linecount++");
 630:/Users/marklee/Documents/xcode/avr/DTU/Robot_test/Robot_test/mainStateMachine.c ****             driveDistanceEncoder(500); // 5 cm
 631:/Users/marklee/Documents/xcode/avr/DTU/Robot_test/Robot_test/mainStateMachine.c ****             newLine = 0;
 632:/Users/marklee/Documents/xcode/avr/DTU/Robot_test/Robot_test/mainStateMachine.c ****             lineCount = 1;
 1692               	.LM223:
 1693 07f4 EE24      		clr r14
 1694 07f6 E394      		inc r14
 1695 07f8 F12C      		mov r15,__zero_reg__
 1696               	.L146:
 619:/Users/marklee/Documents/xcode/avr/DTU/Robot_test/Robot_test/mainStateMachine.c ****         while (!adjustSpeed);
 1698               	.LM224:
 1699 07fa 8091 0000 		lds r24,adjustSpeed
 1700 07fe 8823      		tst r24
 1701 0800 01F0      		breq .L146
 620:/Users/marklee/Documents/xcode/avr/DTU/Robot_test/Robot_test/mainStateMachine.c ****         if (adjustSpeed)
 1703               	.LM225:
 1704 0802 8091 0000 		lds r24,adjustSpeed
 1705 0806 8823      		tst r24
 1706 0808 01F0      		breq .L147
 622:/Users/marklee/Documents/xcode/avr/DTU/Robot_test/Robot_test/mainStateMachine.c ****             adjustSpeed = false;
 1708               	.LM226:
 1709 080a 1092 0000 		sts adjustSpeed,__zero_reg__
 623:/Users/marklee/Documents/xcode/avr/DTU/Robot_test/Robot_test/mainStateMachine.c ****             LineSensors_check_all();
 1711               	.LM227:
 1712 080e 0E94 0000 		call LineSensors_check_all
 624:/Users/marklee/Documents/xcode/avr/DTU/Robot_test/Robot_test/mainStateMachine.c ****             sendLineToInterface();
 1714               	.LM228:
 1715 0812 0E94 0000 		call sendLineToInterface
 625:/Users/marklee/Documents/xcode/avr/DTU/Robot_test/Robot_test/mainStateMachine.c ****             drive(12, 160); // 70
 1717               	.LM229:
 1718 0816 60EA      		ldi r22,lo8(-96)
 1719 0818 70E0      		ldi r23,0
 1720 081a 8CE0      		ldi r24,lo8(12)
 1721 081c 90E0      		ldi r25,0
 1722 081e 0E94 0000 		call drive
 1723               	.L147:
 627:/Users/marklee/Documents/xcode/avr/DTU/Robot_test/Robot_test/mainStateMachine.c ****         if ((newLine == 15 || newLine == 14 || newLine == 12 || newLine == 8) && lineCount == 0)
 1725               	.LM230:
 1726 0822 8091 0000 		lds r24,newLine
 1727 0826 9091 0000 		lds r25,newLine+1
 1728 082a 0F97      		sbiw r24,15
 1729 082c 01F0      		breq .L148
 627:/Users/marklee/Documents/xcode/avr/DTU/Robot_test/Robot_test/mainStateMachine.c ****         if ((newLine == 15 || newLine == 14 || newLine == 12 || newLine == 8) && lineCount == 0)
 1731               	.LM231:
 1732 082e 8091 0000 		lds r24,newLine
 1733 0832 9091 0000 		lds r25,newLine+1
 1734 0836 0E97      		sbiw r24,14
 1735 0838 01F0      		breq .L148
 627:/Users/marklee/Documents/xcode/avr/DTU/Robot_test/Robot_test/mainStateMachine.c ****         if ((newLine == 15 || newLine == 14 || newLine == 12 || newLine == 8) && lineCount == 0)
 1737               	.LM232:
 1738 083a 8091 0000 		lds r24,newLine
 1739 083e 9091 0000 		lds r25,newLine+1
 1740 0842 0C97      		sbiw r24,12
 1741 0844 01F0      		breq .L148
 1742 0846 8091 0000 		lds r24,newLine
 1743 084a 9091 0000 		lds r25,newLine+1
 1744 084e 0897      		sbiw r24,8
 1745 0850 01F4      		brne .L149
 1746               	.L148:
 1747 0852 8981      		ldd r24,Y+1
 1748 0854 9A81      		ldd r25,Y+2
 1749 0856 892B      		or r24,r25
 1750 0858 01F4      		brne .L149
 629:/Users/marklee/Documents/xcode/avr/DTU/Robot_test/Robot_test/mainStateMachine.c ****             sendUartToInterface('H', "linecount++");
 1752               	.LM233:
 1753 085a 60E0      		ldi r22,lo8(.LC20)
 1754 085c 70E0      		ldi r23,hi8(.LC20)
 1755 085e 88E4      		ldi r24,lo8(72)
 1756 0860 0E94 0000 		call sendUartToInterface
 630:/Users/marklee/Documents/xcode/avr/DTU/Robot_test/Robot_test/mainStateMachine.c ****             driveDistanceEncoder(500); // 5 cm
 1758               	.LM234:
 1759 0864 84EF      		ldi r24,lo8(-12)
 1760 0866 91E0      		ldi r25,lo8(1)
 1761 0868 0E94 0000 		call driveDistanceEncoder
 631:/Users/marklee/Documents/xcode/avr/DTU/Robot_test/Robot_test/mainStateMachine.c ****             newLine = 0;
 1763               	.LM235:
 1764 086c 1092 0000 		sts newLine+1,__zero_reg__
 1765 0870 1092 0000 		sts newLine,__zero_reg__
 1767               	.LM236:
 1768 0874 FA82      		std Y+2,r15
 1769 0876 E982      		std Y+1,r14
 1770 0878 00C0      		rjmp .L150
 1771               	.L149:
 633:/Users/marklee/Documents/xcode/avr/DTU/Robot_test/Robot_test/mainStateMachine.c ****         }
 634:/Users/marklee/Documents/xcode/avr/DTU/Robot_test/Robot_test/mainStateMachine.c ****         else if ((newLine == 15 || newLine == 14 || newLine == 12 || newLine == 8) && lineCount == 
 1773               	.LM237:
 1774 087a 8091 0000 		lds r24,newLine
 1775 087e 9091 0000 		lds r25,newLine+1
 1776 0882 0F97      		sbiw r24,15
 1777 0884 01F0      		breq .L151
 1779               	.LM238:
 1780 0886 8091 0000 		lds r24,newLine
 1781 088a 9091 0000 		lds r25,newLine+1
 1782 088e 0E97      		sbiw r24,14
 1783 0890 01F0      		breq .L151
 1785               	.LM239:
 1786 0892 8091 0000 		lds r24,newLine
 1787 0896 9091 0000 		lds r25,newLine+1
 1788 089a 0C97      		sbiw r24,12
 1789 089c 01F0      		breq .L151
 1790 089e 8091 0000 		lds r24,newLine
 1791 08a2 9091 0000 		lds r25,newLine+1
 1792 08a6 0897      		sbiw r24,8
 1793 08a8 01F4      		brne .L150
 1794               	.L151:
 1795 08aa 0981      		ldd r16,Y+1
 1796 08ac 1A81      		ldd r17,Y+2
 1797 08ae 0130      		cpi r16,1
 1798 08b0 1105      		cpc r17,__zero_reg__
 1799 08b2 01F4      		brne .L150
 635:/Users/marklee/Documents/xcode/avr/DTU/Robot_test/Robot_test/mainStateMachine.c ****         {
 636:/Users/marklee/Documents/xcode/avr/DTU/Robot_test/Robot_test/mainStateMachine.c ****             driveDistanceEncoder(435); // 5 cm
 1801               	.LM240:
 1802 08b4 83EB      		ldi r24,lo8(-77)
 1803 08b6 91E0      		ldi r25,lo8(1)
 1804 08b8 0E94 0000 		call driveDistanceEncoder
 637:/Users/marklee/Documents/xcode/avr/DTU/Robot_test/Robot_test/mainStateMachine.c ****             sendUartToInterface('H', "break");
 1806               	.LM241:
 1807 08bc 60E0      		ldi r22,lo8(.LC21)
 1808 08be 70E0      		ldi r23,hi8(.LC21)
 1809 08c0 88E4      		ldi r24,lo8(72)
 1810 08c2 0E94 0000 		call sendUartToInterface
 638:/Users/marklee/Documents/xcode/avr/DTU/Robot_test/Robot_test/mainStateMachine.c ****             break;
 639:/Users/marklee/Documents/xcode/avr/DTU/Robot_test/Robot_test/mainStateMachine.c ****         }
 640:/Users/marklee/Documents/xcode/avr/DTU/Robot_test/Robot_test/mainStateMachine.c ****         
 641:/Users/marklee/Documents/xcode/avr/DTU/Robot_test/Robot_test/mainStateMachine.c ****         prevLine = newLine;
 642:/Users/marklee/Documents/xcode/avr/DTU/Robot_test/Robot_test/mainStateMachine.c ****     }
 643:/Users/marklee/Documents/xcode/avr/DTU/Robot_test/Robot_test/mainStateMachine.c **** 
 644:/Users/marklee/Documents/xcode/avr/DTU/Robot_test/Robot_test/mainStateMachine.c ****     sendUartToInterface('H', "Full circle done");
 1812               	.LM242:
 1813 08c6 60E0      		ldi r22,lo8(.LC22)
 1814 08c8 70E0      		ldi r23,hi8(.LC22)
 1815 08ca 88E4      		ldi r24,lo8(72)
 1816 08cc 0E94 0000 		call sendUartToInterface
 645:/Users/marklee/Documents/xcode/avr/DTU/Robot_test/Robot_test/mainStateMachine.c ****     turnToLine(LEFT);
 1818               	.LM243:
 1819 08d0 80E0      		ldi r24,0
 1820 08d2 90E0      		ldi r25,0
 1821 08d4 0E94 0000 		call turnToLine
 646:/Users/marklee/Documents/xcode/avr/DTU/Robot_test/Robot_test/mainStateMachine.c ****     
 647:/Users/marklee/Documents/xcode/avr/DTU/Robot_test/Robot_test/mainStateMachine.c ****     fullCircleDone = 1;
 1823               	.LM244:
 1824 08d8 1093 0000 		sts fullCircleDone+1,r17
 1825 08dc 0093 0000 		sts fullCircleDone,r16
 1826               	/* epilogue start */
 648:/Users/marklee/Documents/xcode/avr/DTU/Robot_test/Robot_test/mainStateMachine.c **** }
 1828               	.LM245:
 1829 08e0 0F90      		pop __tmp_reg__
 1830 08e2 0F90      		pop __tmp_reg__
 1831 08e4 DF91      		pop r29
 1832 08e6 CF91      		pop r28
 1833 08e8 1F91      		pop r17
 1834 08ea 0F91      		pop r16
 1835 08ec FF90      		pop r15
 1836 08ee EF90      		pop r14
 1837 08f0 0895      		ret
 1838               	.L150:
 641:/Users/marklee/Documents/xcode/avr/DTU/Robot_test/Robot_test/mainStateMachine.c ****         prevLine = newLine;
 1840               	.LM246:
 1841 08f2 8091 0000 		lds r24,newLine
 1842 08f6 9091 0000 		lds r25,newLine+1
 1843 08fa 9093 0000 		sts prevLine+1,r25
 1844 08fe 8093 0000 		sts prevLine,r24
 642:/Users/marklee/Documents/xcode/avr/DTU/Robot_test/Robot_test/mainStateMachine.c ****     }
 1846               	.LM247:
 1847 0902 00C0      		rjmp .L146
 1852               	.Lscope14:
 1855               	.global	followWall
 1857               	followWall:
 649:/Users/marklee/Documents/xcode/avr/DTU/Robot_test/Robot_test/mainStateMachine.c **** 
 650:/Users/marklee/Documents/xcode/avr/DTU/Robot_test/Robot_test/mainStateMachine.c **** void followWall(int distanceToWall)
 651:/Users/marklee/Documents/xcode/avr/DTU/Robot_test/Robot_test/mainStateMachine.c **** {
 1859               	.LM248:
 1860               	.LFBB15:
 1861 0904 CF93      		push r28
 1862 0906 DF93      		push r29
 1863               	/* prologue: function */
 1864               	/* frame size = 0 */
 1865               	/* stack size = 2 */
 1866               	.L__stack_usage = 2
 1867 0908 EC01      		movw r28,r24
 652:/Users/marklee/Documents/xcode/avr/DTU/Robot_test/Robot_test/mainStateMachine.c ****     sendDistanceToInterface(SIDE_SENSOR);
 1869               	.LM249:
 1870 090a 81E0      		ldi r24,lo8(1)
 1871 090c 90E0      		ldi r25,0
 1872 090e 0E94 0000 		call sendDistanceToInterface
 653:/Users/marklee/Documents/xcode/avr/DTU/Robot_test/Robot_test/mainStateMachine.c ****     
 654:/Users/marklee/Documents/xcode/avr/DTU/Robot_test/Robot_test/mainStateMachine.c ****     if (sideDistance < distanceToWall)
 1874               	.LM250:
 1875 0912 8091 0000 		lds r24,sideDistance
 1876 0916 9091 0000 		lds r25,sideDistance+1
 1877 091a 8C17      		cp r24,r28
 1878 091c 9D07      		cpc r25,r29
 1879 091e 04F4      		brge .L176
 655:/Users/marklee/Documents/xcode/avr/DTU/Robot_test/Robot_test/mainStateMachine.c ****     {
 656:/Users/marklee/Documents/xcode/avr/DTU/Robot_test/Robot_test/mainStateMachine.c ****         if (adjustSpeed)
 1881               	.LM251:
 1882 0920 8091 0000 		lds r24,adjustSpeed
 1883 0924 8823      		tst r24
 1884 0926 01F0      		breq .L175
 657:/Users/marklee/Documents/xcode/avr/DTU/Robot_test/Robot_test/mainStateMachine.c ****         {
 658:/Users/marklee/Documents/xcode/avr/DTU/Robot_test/Robot_test/mainStateMachine.c ****             adjustSpeed = false;
 1886               	.LM252:
 1887 0928 1092 0000 		sts adjustSpeed,__zero_reg__
 659:/Users/marklee/Documents/xcode/avr/DTU/Robot_test/Robot_test/mainStateMachine.c ****             drive(NUDGE_RIGHT, speed);
 1889               	.LM253:
 1890 092c 6091 0000 		lds r22,speed
 1891 0930 7091 0000 		lds r23,speed+1
 1892 0934 82E0      		ldi r24,lo8(2)
 1893 0936 90E0      		ldi r25,0
 1894 0938 00C0      		rjmp .L187
 1895               	.L176:
 660:/Users/marklee/Documents/xcode/avr/DTU/Robot_test/Robot_test/mainStateMachine.c ****             sendDistanceToInterface(SIDE_SENSOR);
 661:/Users/marklee/Documents/xcode/avr/DTU/Robot_test/Robot_test/mainStateMachine.c ****         }
 662:/Users/marklee/Documents/xcode/avr/DTU/Robot_test/Robot_test/mainStateMachine.c ****     }
 663:/Users/marklee/Documents/xcode/avr/DTU/Robot_test/Robot_test/mainStateMachine.c ****     else if (sideDistance > distanceToWall)
 1897               	.LM254:
 1898 093a 8091 0000 		lds r24,sideDistance
 1899 093e 9091 0000 		lds r25,sideDistance+1
 1900 0942 C817      		cp r28,r24
 1901 0944 D907      		cpc r29,r25
 1902 0946 04F4      		brge .L180
 664:/Users/marklee/Documents/xcode/avr/DTU/Robot_test/Robot_test/mainStateMachine.c ****     {
 665:/Users/marklee/Documents/xcode/avr/DTU/Robot_test/Robot_test/mainStateMachine.c ****         if (adjustSpeed)
 1904               	.LM255:
 1905 0948 8091 0000 		lds r24,adjustSpeed
 1906 094c 8823      		tst r24
 1907 094e 01F0      		breq .L175
 666:/Users/marklee/Documents/xcode/avr/DTU/Robot_test/Robot_test/mainStateMachine.c ****         {
 667:/Users/marklee/Documents/xcode/avr/DTU/Robot_test/Robot_test/mainStateMachine.c ****             adjustSpeed = false;
 1909               	.LM256:
 1910 0950 1092 0000 		sts adjustSpeed,__zero_reg__
 668:/Users/marklee/Documents/xcode/avr/DTU/Robot_test/Robot_test/mainStateMachine.c ****             drive(NUDGE_LEFT, speed);
 1912               	.LM257:
 1913 0954 6091 0000 		lds r22,speed
 1914 0958 7091 0000 		lds r23,speed+1
 1915 095c 81E0      		ldi r24,lo8(1)
 1916 095e 90E0      		ldi r25,0
 1917               	.L187:
 1918 0960 0E94 0000 		call drive
 669:/Users/marklee/Documents/xcode/avr/DTU/Robot_test/Robot_test/mainStateMachine.c ****             sendDistanceToInterface(SIDE_SENSOR);
 1920               	.LM258:
 1921 0964 81E0      		ldi r24,lo8(1)
 1922 0966 90E0      		ldi r25,0
 1923               	/* epilogue start */
 670:/Users/marklee/Documents/xcode/avr/DTU/Robot_test/Robot_test/mainStateMachine.c ****         }
 671:/Users/marklee/Documents/xcode/avr/DTU/Robot_test/Robot_test/mainStateMachine.c ****     }
 672:/Users/marklee/Documents/xcode/avr/DTU/Robot_test/Robot_test/mainStateMachine.c ****     else
 673:/Users/marklee/Documents/xcode/avr/DTU/Robot_test/Robot_test/mainStateMachine.c ****     {
 674:/Users/marklee/Documents/xcode/avr/DTU/Robot_test/Robot_test/mainStateMachine.c ****         while (!adjustSpeed);
 675:/Users/marklee/Documents/xcode/avr/DTU/Robot_test/Robot_test/mainStateMachine.c ****         adjustSpeed = false;
 676:/Users/marklee/Documents/xcode/avr/DTU/Robot_test/Robot_test/mainStateMachine.c ****         drive(FORWARD, speed);
 677:/Users/marklee/Documents/xcode/avr/DTU/Robot_test/Robot_test/mainStateMachine.c ****     }
 678:/Users/marklee/Documents/xcode/avr/DTU/Robot_test/Robot_test/mainStateMachine.c **** }
 1925               	.LM259:
 1926 0968 DF91      		pop r29
 1927 096a CF91      		pop r28
 669:/Users/marklee/Documents/xcode/avr/DTU/Robot_test/Robot_test/mainStateMachine.c ****             sendDistanceToInterface(SIDE_SENSOR);
 1929               	.LM260:
 1930 096c 0C94 0000 		jmp sendDistanceToInterface
 1931               	.L180:
 674:/Users/marklee/Documents/xcode/avr/DTU/Robot_test/Robot_test/mainStateMachine.c ****         while (!adjustSpeed);
 1933               	.LM261:
 1934 0970 8091 0000 		lds r24,adjustSpeed
 1935 0974 8823      		tst r24
 1936 0976 01F0      		breq .L180
 675:/Users/marklee/Documents/xcode/avr/DTU/Robot_test/Robot_test/mainStateMachine.c ****         adjustSpeed = false;
 1938               	.LM262:
 1939 0978 1092 0000 		sts adjustSpeed,__zero_reg__
 676:/Users/marklee/Documents/xcode/avr/DTU/Robot_test/Robot_test/mainStateMachine.c ****         drive(FORWARD, speed);
 1941               	.LM263:
 1942 097c 6091 0000 		lds r22,speed
 1943 0980 7091 0000 		lds r23,speed+1
 1944 0984 80E0      		ldi r24,0
 1945 0986 90E0      		ldi r25,0
 1946               	/* epilogue start */
 1948               	.LM264:
 1949 0988 DF91      		pop r29
 1950 098a CF91      		pop r28
 676:/Users/marklee/Documents/xcode/avr/DTU/Robot_test/Robot_test/mainStateMachine.c ****         drive(FORWARD, speed);
 1952               	.LM265:
 1953 098c 0C94 0000 		jmp drive
 1954               	.L175:
 1955               	/* epilogue start */
 1957               	.LM266:
 1958 0990 DF91      		pop r29
 1959 0992 CF91      		pop r28
 1960 0994 0895      		ret
 1962               	.Lscope15:
 1963               		.section	.rodata.str1.1
 1964               	.LC23:
 1965 02a2 5357 3200 		.string	"SW2"
 1966               	.LC24:
 1967 02a6 5357 3300 		.string	"SW3"
 1968               	.LC25:
 1969 02aa 5357 3400 		.string	"SW4"
 1970               	.LC26:
 1971 02ae 5357 3500 		.string	"SW5"
 1972               	.LC27:
 1973 02b2 5357 3600 		.string	"SW6"
 1974               		.text
 1976               	.global	followWallStateMachine
 1978               	followWallStateMachine:
 679:/Users/marklee/Documents/xcode/avr/DTU/Robot_test/Robot_test/mainStateMachine.c **** 
 680:/Users/marklee/Documents/xcode/avr/DTU/Robot_test/Robot_test/mainStateMachine.c **** void followWallStateMachine(void)
 681:/Users/marklee/Documents/xcode/avr/DTU/Robot_test/Robot_test/mainStateMachine.c **** {
 1980               	.LM267:
 1981               	.LFBB16:
 1982               	/* prologue: function */
 1983               	/* frame size = 0 */
 1984               	/* stack size = 0 */
 1985               	.L__stack_usage = 0
 682:/Users/marklee/Documents/xcode/avr/DTU/Robot_test/Robot_test/mainStateMachine.c ****     speed = 120;
 1987               	.LM268:
 1988 0996 88E7      		ldi r24,lo8(120)
 1989 0998 90E0      		ldi r25,0
 1990 099a 9093 0000 		sts speed+1,r25
 1991 099e 8093 0000 		sts speed,r24
 683:/Users/marklee/Documents/xcode/avr/DTU/Robot_test/Robot_test/mainStateMachine.c ****     
 684:/Users/marklee/Documents/xcode/avr/DTU/Robot_test/Robot_test/mainStateMachine.c ****     switch (wall_state)
 1993               	.LM269:
 1994 09a2 8091 0000 		lds r24,wall_state
 1995 09a6 8230      		cpi r24,lo8(2)
 1996 09a8 01F4      		brne .+2
 1997 09aa 00C0      		rjmp .L190
 1998 09ac 00F4      		brsh .L191
 1999 09ae 8823      		tst r24
 2000 09b0 01F0      		breq .L192
 2001 09b2 8130      		cpi r24,lo8(1)
 2002 09b4 01F0      		breq .L193
 2003 09b6 0895      		ret
 2004               	.L191:
 2005 09b8 8430      		cpi r24,lo8(4)
 2006 09ba 01F4      		brne .+2
 2007 09bc 00C0      		rjmp .L194
 2008 09be 00F4      		brsh .+2
 2009 09c0 00C0      		rjmp .L195
 2010 09c2 8530      		cpi r24,lo8(5)
 2011 09c4 01F4      		brne .+2
 2012 09c6 00C0      		rjmp .L196
 2013 09c8 0895      		ret
 2014               	.L192:
 685:/Users/marklee/Documents/xcode/avr/DTU/Robot_test/Robot_test/mainStateMachine.c ****     {
 686:/Users/marklee/Documents/xcode/avr/DTU/Robot_test/Robot_test/mainStateMachine.c ****         case FIND_WALL:
 687:/Users/marklee/Documents/xcode/avr/DTU/Robot_test/Robot_test/mainStateMachine.c ****             if (wallStateMessage == 0)
 2016               	.LM270:
 2017 09ca 8091 0000 		lds r24,wallStateMessage
 2018 09ce 9091 0000 		lds r25,wallStateMessage+1
 2019 09d2 892B      		or r24,r25
 2020 09d4 01F4      		brne .L197
 688:/Users/marklee/Documents/xcode/avr/DTU/Robot_test/Robot_test/mainStateMachine.c ****             {
 689:/Users/marklee/Documents/xcode/avr/DTU/Robot_test/Robot_test/mainStateMachine.c ****                 wallStateMessage = 1;
 2022               	.LM271:
 2023 09d6 81E0      		ldi r24,lo8(1)
 2024 09d8 90E0      		ldi r25,0
 2025 09da 9093 0000 		sts wallStateMessage+1,r25
 2026 09de 8093 0000 		sts wallStateMessage,r24
 2027               	.L197:
 2028               	.LBB114:
 2029               	.LBB115:
 229:/Users/marklee/Documents/xcode/avr/DTU/Robot_test/Robot_test/mainStateMachine.c ****     driveDistanceEncoder(encoderValue);
 2031               	.LM272:
 2032 09e2 85EA      		ldi r24,lo8(-91)
 2033 09e4 92E2      		ldi r25,lo8(34)
 2034 09e6 0E94 0000 		call driveDistanceEncoder
 2035               	.LBE115:
 2036               	.LBE114:
 690:/Users/marklee/Documents/xcode/avr/DTU/Robot_test/Robot_test/mainStateMachine.c ****             }
 691:/Users/marklee/Documents/xcode/avr/DTU/Robot_test/Robot_test/mainStateMachine.c ****             
 692:/Users/marklee/Documents/xcode/avr/DTU/Robot_test/Robot_test/mainStateMachine.c ****             driveDistanceInCM(102);
 693:/Users/marklee/Documents/xcode/avr/DTU/Robot_test/Robot_test/mainStateMachine.c ****             stopTimeMs(500);
 2038               	.LM273:
 2039 09ea 84EF      		ldi r24,lo8(-12)
 2040 09ec 91E0      		ldi r25,lo8(1)
 2041 09ee 0E94 0000 		call stopTimeMs
 694:/Users/marklee/Documents/xcode/avr/DTU/Robot_test/Robot_test/mainStateMachine.c ****             
 695:/Users/marklee/Documents/xcode/avr/DTU/Robot_test/Robot_test/mainStateMachine.c ****             // turn 90 degrees right
 696:/Users/marklee/Documents/xcode/avr/DTU/Robot_test/Robot_test/mainStateMachine.c ****             turnDegreesGyro(3, RIGHT);
 2043               	.LM274:
 2044 09f2 61E0      		ldi r22,lo8(1)
 2045 09f4 70E0      		ldi r23,0
 2046 09f6 83E0      		ldi r24,lo8(3)
 2047 09f8 90E0      		ldi r25,0
 2048 09fa 0E94 0000 		call turnDegreesGyro
 697:/Users/marklee/Documents/xcode/avr/DTU/Robot_test/Robot_test/mainStateMachine.c ****             
 698:/Users/marklee/Documents/xcode/avr/DTU/Robot_test/Robot_test/mainStateMachine.c ****             
 699:/Users/marklee/Documents/xcode/avr/DTU/Robot_test/Robot_test/mainStateMachine.c ****             stopTimeMs(500);
 2050               	.LM275:
 2051 09fe 84EF      		ldi r24,lo8(-12)
 2052 0a00 91E0      		ldi r25,lo8(1)
 2053 0a02 0E94 0000 		call stopTimeMs
 700:/Users/marklee/Documents/xcode/avr/DTU/Robot_test/Robot_test/mainStateMachine.c ****             
 701:/Users/marklee/Documents/xcode/avr/DTU/Robot_test/Robot_test/mainStateMachine.c ****             wallStateMessage = 0;
 2055               	.LM276:
 2056 0a06 1092 0000 		sts wallStateMessage+1,__zero_reg__
 2057 0a0a 1092 0000 		sts wallStateMessage,__zero_reg__
 702:/Users/marklee/Documents/xcode/avr/DTU/Robot_test/Robot_test/mainStateMachine.c ****             wall_state = FIRST;
 2059               	.LM277:
 2060 0a0e 81E0      		ldi r24,lo8(1)
 2061 0a10 8093 0000 		sts wall_state,r24
 2062               	.L193:
 703:/Users/marklee/Documents/xcode/avr/DTU/Robot_test/Robot_test/mainStateMachine.c ****             
 704:/Users/marklee/Documents/xcode/avr/DTU/Robot_test/Robot_test/mainStateMachine.c ****         case FIRST:
 705:/Users/marklee/Documents/xcode/avr/DTU/Robot_test/Robot_test/mainStateMachine.c ****             if (wallStateMessage == 0)
 2064               	.LM278:
 2065 0a14 8091 0000 		lds r24,wallStateMessage
 2066 0a18 9091 0000 		lds r25,wallStateMessage+1
 2067 0a1c 892B      		or r24,r25
 2068 0a1e 01F4      		brne .L198
 706:/Users/marklee/Documents/xcode/avr/DTU/Robot_test/Robot_test/mainStateMachine.c ****             {
 707:/Users/marklee/Documents/xcode/avr/DTU/Robot_test/Robot_test/mainStateMachine.c ****                 sendUartToInterface('C', "SW2");
 2070               	.LM279:
 2071 0a20 60E0      		ldi r22,lo8(.LC23)
 2072 0a22 70E0      		ldi r23,hi8(.LC23)
 2073 0a24 83E4      		ldi r24,lo8(67)
 2074 0a26 0E94 0000 		call sendUartToInterface
 708:/Users/marklee/Documents/xcode/avr/DTU/Robot_test/Robot_test/mainStateMachine.c ****                 wallStateMessage = 1;
 2076               	.LM280:
 2077 0a2a 81E0      		ldi r24,lo8(1)
 2078 0a2c 90E0      		ldi r25,0
 2079 0a2e 9093 0000 		sts wallStateMessage+1,r25
 2080 0a32 8093 0000 		sts wallStateMessage,r24
 2081               	.L198:
 2082               	.LBB116:
 2083               	.LBB117:
 229:/Users/marklee/Documents/xcode/avr/DTU/Robot_test/Robot_test/mainStateMachine.c ****     driveDistanceEncoder(encoderValue);
 2085               	.LM281:
 2086 0a36 81E6      		ldi r24,lo8(97)
 2087 0a38 94E1      		ldi r25,lo8(20)
 2088 0a3a 0E94 0000 		call driveDistanceEncoder
 2089               	.LBE117:
 2090               	.LBE116:
 709:/Users/marklee/Documents/xcode/avr/DTU/Robot_test/Robot_test/mainStateMachine.c ****             }
 710:/Users/marklee/Documents/xcode/avr/DTU/Robot_test/Robot_test/mainStateMachine.c ****             
 711:/Users/marklee/Documents/xcode/avr/DTU/Robot_test/Robot_test/mainStateMachine.c ****             driveDistanceInCM(60);
 712:/Users/marklee/Documents/xcode/avr/DTU/Robot_test/Robot_test/mainStateMachine.c ****             
 713:/Users/marklee/Documents/xcode/avr/DTU/Robot_test/Robot_test/mainStateMachine.c ****             stopTimeMs(500);
 2092               	.LM282:
 2093 0a3e 84EF      		ldi r24,lo8(-12)
 2094 0a40 91E0      		ldi r25,lo8(1)
 2095 0a42 0E94 0000 		call stopTimeMs
 714:/Users/marklee/Documents/xcode/avr/DTU/Robot_test/Robot_test/mainStateMachine.c ****             
 715:/Users/marklee/Documents/xcode/avr/DTU/Robot_test/Robot_test/mainStateMachine.c ****             // turn 90 degrees left
 716:/Users/marklee/Documents/xcode/avr/DTU/Robot_test/Robot_test/mainStateMachine.c ****             turnDegreesGyro(23, LEFT);
 2097               	.LM283:
 2098 0a46 60E0      		ldi r22,0
 2099 0a48 70E0      		ldi r23,0
 2100 0a4a 87E1      		ldi r24,lo8(23)
 2101 0a4c 90E0      		ldi r25,0
 2102 0a4e 0E94 0000 		call turnDegreesGyro
 717:/Users/marklee/Documents/xcode/avr/DTU/Robot_test/Robot_test/mainStateMachine.c ****             //            turn90degreesEncoder(LEFT);
 718:/Users/marklee/Documents/xcode/avr/DTU/Robot_test/Robot_test/mainStateMachine.c ****             
 719:/Users/marklee/Documents/xcode/avr/DTU/Robot_test/Robot_test/mainStateMachine.c ****             wallStateMessage = 0;
 2104               	.LM284:
 2105 0a52 1092 0000 		sts wallStateMessage+1,__zero_reg__
 2106 0a56 1092 0000 		sts wallStateMessage,__zero_reg__
 720:/Users/marklee/Documents/xcode/avr/DTU/Robot_test/Robot_test/mainStateMachine.c ****             wall_state = SECOND;
 2108               	.LM285:
 2109 0a5a 82E0      		ldi r24,lo8(2)
 2110 0a5c 8093 0000 		sts wall_state,r24
 2111               	.L190:
 721:/Users/marklee/Documents/xcode/avr/DTU/Robot_test/Robot_test/mainStateMachine.c ****             
 722:/Users/marklee/Documents/xcode/avr/DTU/Robot_test/Robot_test/mainStateMachine.c ****             //            break;
 723:/Users/marklee/Documents/xcode/avr/DTU/Robot_test/Robot_test/mainStateMachine.c ****             
 724:/Users/marklee/Documents/xcode/avr/DTU/Robot_test/Robot_test/mainStateMachine.c ****         case SECOND:
 725:/Users/marklee/Documents/xcode/avr/DTU/Robot_test/Robot_test/mainStateMachine.c ****             if (wallStateMessage == 0)
 2113               	.LM286:
 2114 0a60 8091 0000 		lds r24,wallStateMessage
 2115 0a64 9091 0000 		lds r25,wallStateMessage+1
 2116 0a68 892B      		or r24,r25
 2117 0a6a 01F4      		brne .L199
 726:/Users/marklee/Documents/xcode/avr/DTU/Robot_test/Robot_test/mainStateMachine.c ****             {
 727:/Users/marklee/Documents/xcode/avr/DTU/Robot_test/Robot_test/mainStateMachine.c ****                 sendUartToInterface('C', "SW3");
 2119               	.LM287:
 2120 0a6c 60E0      		ldi r22,lo8(.LC24)
 2121 0a6e 70E0      		ldi r23,hi8(.LC24)
 2122 0a70 83E4      		ldi r24,lo8(67)
 2123 0a72 0E94 0000 		call sendUartToInterface
 728:/Users/marklee/Documents/xcode/avr/DTU/Robot_test/Robot_test/mainStateMachine.c ****                 wallStateMessage = 1;
 2125               	.LM288:
 2126 0a76 81E0      		ldi r24,lo8(1)
 2127 0a78 90E0      		ldi r25,0
 2128 0a7a 9093 0000 		sts wallStateMessage+1,r25
 2129 0a7e 8093 0000 		sts wallStateMessage,r24
 2130               	.L199:
 2131               	.LBB118:
 2132               	.LBB119:
 229:/Users/marklee/Documents/xcode/avr/DTU/Robot_test/Robot_test/mainStateMachine.c ****     driveDistanceEncoder(encoderValue);
 2134               	.LM289:
 2135 0a82 8CE2      		ldi r24,lo8(44)
 2136 0a84 9BE1      		ldi r25,lo8(27)
 2137 0a86 0E94 0000 		call driveDistanceEncoder
 2138               	.LBE119:
 2139               	.LBE118:
 729:/Users/marklee/Documents/xcode/avr/DTU/Robot_test/Robot_test/mainStateMachine.c ****             }
 730:/Users/marklee/Documents/xcode/avr/DTU/Robot_test/Robot_test/mainStateMachine.c ****             
 731:/Users/marklee/Documents/xcode/avr/DTU/Robot_test/Robot_test/mainStateMachine.c ****             
 732:/Users/marklee/Documents/xcode/avr/DTU/Robot_test/Robot_test/mainStateMachine.c ****             driveDistanceInCM(80);
 733:/Users/marklee/Documents/xcode/avr/DTU/Robot_test/Robot_test/mainStateMachine.c ****             
 734:/Users/marklee/Documents/xcode/avr/DTU/Robot_test/Robot_test/mainStateMachine.c ****             stopTimeMs(500);
 2141               	.LM290:
 2142 0a8a 84EF      		ldi r24,lo8(-12)
 2143 0a8c 91E0      		ldi r25,lo8(1)
 2144 0a8e 0E94 0000 		call stopTimeMs
 735:/Users/marklee/Documents/xcode/avr/DTU/Robot_test/Robot_test/mainStateMachine.c ****             
 736:/Users/marklee/Documents/xcode/avr/DTU/Robot_test/Robot_test/mainStateMachine.c ****             // turn 90 degrees left
 737:/Users/marklee/Documents/xcode/avr/DTU/Robot_test/Robot_test/mainStateMachine.c ****             turnDegreesGyro(50, LEFT);
 2146               	.LM291:
 2147 0a92 60E0      		ldi r22,0
 2148 0a94 70E0      		ldi r23,0
 2149 0a96 82E3      		ldi r24,lo8(50)
 2150 0a98 90E0      		ldi r25,0
 2151 0a9a 0E94 0000 		call turnDegreesGyro
 738:/Users/marklee/Documents/xcode/avr/DTU/Robot_test/Robot_test/mainStateMachine.c ****             //            turn90degreesEncoder(LEFT);
 739:/Users/marklee/Documents/xcode/avr/DTU/Robot_test/Robot_test/mainStateMachine.c ****             
 740:/Users/marklee/Documents/xcode/avr/DTU/Robot_test/Robot_test/mainStateMachine.c ****             wallStateMessage = 0;
 2153               	.LM292:
 2154 0a9e 1092 0000 		sts wallStateMessage+1,__zero_reg__
 2155 0aa2 1092 0000 		sts wallStateMessage,__zero_reg__
 741:/Users/marklee/Documents/xcode/avr/DTU/Robot_test/Robot_test/mainStateMachine.c ****             wall_state = THIRD;
 2157               	.LM293:
 2158 0aa6 83E0      		ldi r24,lo8(3)
 2159 0aa8 8093 0000 		sts wall_state,r24
 2160               	.L195:
 742:/Users/marklee/Documents/xcode/avr/DTU/Robot_test/Robot_test/mainStateMachine.c ****             
 743:/Users/marklee/Documents/xcode/avr/DTU/Robot_test/Robot_test/mainStateMachine.c ****             //            break;
 744:/Users/marklee/Documents/xcode/avr/DTU/Robot_test/Robot_test/mainStateMachine.c ****             
 745:/Users/marklee/Documents/xcode/avr/DTU/Robot_test/Robot_test/mainStateMachine.c ****         case THIRD:
 746:/Users/marklee/Documents/xcode/avr/DTU/Robot_test/Robot_test/mainStateMachine.c ****             if (wallStateMessage == 0)
 2162               	.LM294:
 2163 0aac 8091 0000 		lds r24,wallStateMessage
 2164 0ab0 9091 0000 		lds r25,wallStateMessage+1
 2165 0ab4 892B      		or r24,r25
 2166 0ab6 01F4      		brne .L200
 747:/Users/marklee/Documents/xcode/avr/DTU/Robot_test/Robot_test/mainStateMachine.c ****             {
 748:/Users/marklee/Documents/xcode/avr/DTU/Robot_test/Robot_test/mainStateMachine.c ****                 sendUartToInterface('C', "SW4");
 2168               	.LM295:
 2169 0ab8 60E0      		ldi r22,lo8(.LC25)
 2170 0aba 70E0      		ldi r23,hi8(.LC25)
 2171 0abc 83E4      		ldi r24,lo8(67)
 2172 0abe 0E94 0000 		call sendUartToInterface
 749:/Users/marklee/Documents/xcode/avr/DTU/Robot_test/Robot_test/mainStateMachine.c ****                 wallStateMessage = 1;
 2174               	.LM296:
 2175 0ac2 81E0      		ldi r24,lo8(1)
 2176 0ac4 90E0      		ldi r25,0
 2177 0ac6 9093 0000 		sts wallStateMessage+1,r25
 2178 0aca 8093 0000 		sts wallStateMessage,r24
 2179               	.L200:
 2180               	.LBB120:
 2181               	.LBB121:
 229:/Users/marklee/Documents/xcode/avr/DTU/Robot_test/Robot_test/mainStateMachine.c ****     driveDistanceEncoder(encoderValue);
 2183               	.LM297:
 2184 0ace 84E1      		ldi r24,lo8(20)
 2185 0ad0 96E1      		ldi r25,lo8(22)
 2186 0ad2 0E94 0000 		call driveDistanceEncoder
 2187               	.LBE121:
 2188               	.LBE120:
 750:/Users/marklee/Documents/xcode/avr/DTU/Robot_test/Robot_test/mainStateMachine.c ****             }
 751:/Users/marklee/Documents/xcode/avr/DTU/Robot_test/Robot_test/mainStateMachine.c ****             
 752:/Users/marklee/Documents/xcode/avr/DTU/Robot_test/Robot_test/mainStateMachine.c ****             // drive at bit forward to align to wall
 753:/Users/marklee/Documents/xcode/avr/DTU/Robot_test/Robot_test/mainStateMachine.c ****             driveDistanceInCM(65);
 754:/Users/marklee/Documents/xcode/avr/DTU/Robot_test/Robot_test/mainStateMachine.c ****             
 755:/Users/marklee/Documents/xcode/avr/DTU/Robot_test/Robot_test/mainStateMachine.c ****             
 756:/Users/marklee/Documents/xcode/avr/DTU/Robot_test/Robot_test/mainStateMachine.c ****             stopTimeMs(500);
 2190               	.LM298:
 2191 0ad6 84EF      		ldi r24,lo8(-12)
 2192 0ad8 91E0      		ldi r25,lo8(1)
 2193 0ada 0E94 0000 		call stopTimeMs
 757:/Users/marklee/Documents/xcode/avr/DTU/Robot_test/Robot_test/mainStateMachine.c ****             
 758:/Users/marklee/Documents/xcode/avr/DTU/Robot_test/Robot_test/mainStateMachine.c ****             // turn 90 degrees right
 759:/Users/marklee/Documents/xcode/avr/DTU/Robot_test/Robot_test/mainStateMachine.c ****             //            turnDegreesGyro(0, RIGHT);
 760:/Users/marklee/Documents/xcode/avr/DTU/Robot_test/Robot_test/mainStateMachine.c ****             turnSomeDegreesEncoder(RIGHT, 2500);
 2195               	.LM299:
 2196 0ade 64EC      		ldi r22,lo8(-60)
 2197 0ae0 79E0      		ldi r23,lo8(9)
 2198 0ae2 81E0      		ldi r24,lo8(1)
 2199 0ae4 90E0      		ldi r25,0
 2200 0ae6 0E94 0000 		call turnSomeDegreesEncoder
 761:/Users/marklee/Documents/xcode/avr/DTU/Robot_test/Robot_test/mainStateMachine.c ****             //            turn90degreesEncoder(RIGHT);
 762:/Users/marklee/Documents/xcode/avr/DTU/Robot_test/Robot_test/mainStateMachine.c ****             
 763:/Users/marklee/Documents/xcode/avr/DTU/Robot_test/Robot_test/mainStateMachine.c ****             wallStateMessage = 0;
 2202               	.LM300:
 2203 0aea 1092 0000 		sts wallStateMessage+1,__zero_reg__
 2204 0aee 1092 0000 		sts wallStateMessage,__zero_reg__
 764:/Users/marklee/Documents/xcode/avr/DTU/Robot_test/Robot_test/mainStateMachine.c ****             wall_state = FOURTH;
 2206               	.LM301:
 2207 0af2 84E0      		ldi r24,lo8(4)
 2208 0af4 8093 0000 		sts wall_state,r24
 2209               	.L194:
 765:/Users/marklee/Documents/xcode/avr/DTU/Robot_test/Robot_test/mainStateMachine.c ****             
 766:/Users/marklee/Documents/xcode/avr/DTU/Robot_test/Robot_test/mainStateMachine.c ****             //            break;
 767:/Users/marklee/Documents/xcode/avr/DTU/Robot_test/Robot_test/mainStateMachine.c ****             
 768:/Users/marklee/Documents/xcode/avr/DTU/Robot_test/Robot_test/mainStateMachine.c ****         case FOURTH:
 769:/Users/marklee/Documents/xcode/avr/DTU/Robot_test/Robot_test/mainStateMachine.c ****             if (wallStateMessage == 0)
 2211               	.LM302:
 2212 0af8 8091 0000 		lds r24,wallStateMessage
 2213 0afc 9091 0000 		lds r25,wallStateMessage+1
 2214 0b00 892B      		or r24,r25
 2215 0b02 01F4      		brne .L201
 770:/Users/marklee/Documents/xcode/avr/DTU/Robot_test/Robot_test/mainStateMachine.c ****             {
 771:/Users/marklee/Documents/xcode/avr/DTU/Robot_test/Robot_test/mainStateMachine.c ****                 sendUartToInterface('C', "SW5");
 2217               	.LM303:
 2218 0b04 60E0      		ldi r22,lo8(.LC26)
 2219 0b06 70E0      		ldi r23,hi8(.LC26)
 2220 0b08 83E4      		ldi r24,lo8(67)
 2221 0b0a 0E94 0000 		call sendUartToInterface
 772:/Users/marklee/Documents/xcode/avr/DTU/Robot_test/Robot_test/mainStateMachine.c ****                 wallStateMessage = 1;
 2223               	.LM304:
 2224 0b0e 81E0      		ldi r24,lo8(1)
 2225 0b10 90E0      		ldi r25,0
 2226 0b12 9093 0000 		sts wallStateMessage+1,r25
 2227 0b16 8093 0000 		sts wallStateMessage,r24
 2228               	.L201:
 2229               	.LBB122:
 2230               	.LBB123:
 229:/Users/marklee/Documents/xcode/avr/DTU/Robot_test/Robot_test/mainStateMachine.c ****     driveDistanceEncoder(encoderValue);
 2232               	.LM305:
 2233 0b1a 86EC      		ldi r24,lo8(-58)
 2234 0b1c 97E1      		ldi r25,lo8(23)
 2235 0b1e 0E94 0000 		call driveDistanceEncoder
 2236               	.LBE123:
 2237               	.LBE122:
 773:/Users/marklee/Documents/xcode/avr/DTU/Robot_test/Robot_test/mainStateMachine.c ****             }
 774:/Users/marklee/Documents/xcode/avr/DTU/Robot_test/Robot_test/mainStateMachine.c ****             
 775:/Users/marklee/Documents/xcode/avr/DTU/Robot_test/Robot_test/mainStateMachine.c ****             driveDistanceInCM(70);
 776:/Users/marklee/Documents/xcode/avr/DTU/Robot_test/Robot_test/mainStateMachine.c ****             
 777:/Users/marklee/Documents/xcode/avr/DTU/Robot_test/Robot_test/mainStateMachine.c ****             stopTimeMs(500);
 2239               	.LM306:
 2240 0b22 84EF      		ldi r24,lo8(-12)
 2241 0b24 91E0      		ldi r25,lo8(1)
 2242 0b26 0E94 0000 		call stopTimeMs
 778:/Users/marklee/Documents/xcode/avr/DTU/Robot_test/Robot_test/mainStateMachine.c ****             
 779:/Users/marklee/Documents/xcode/avr/DTU/Robot_test/Robot_test/mainStateMachine.c ****             wallStateMessage = 0;
 2244               	.LM307:
 2245 0b2a 1092 0000 		sts wallStateMessage+1,__zero_reg__
 2246 0b2e 1092 0000 		sts wallStateMessage,__zero_reg__
 780:/Users/marklee/Documents/xcode/avr/DTU/Robot_test/Robot_test/mainStateMachine.c ****             wall_state = STOP;
 2248               	.LM308:
 2249 0b32 85E0      		ldi r24,lo8(5)
 2250 0b34 8093 0000 		sts wall_state,r24
 2251               	.L196:
 781:/Users/marklee/Documents/xcode/avr/DTU/Robot_test/Robot_test/mainStateMachine.c ****             
 782:/Users/marklee/Documents/xcode/avr/DTU/Robot_test/Robot_test/mainStateMachine.c ****             //            break;
 783:/Users/marklee/Documents/xcode/avr/DTU/Robot_test/Robot_test/mainStateMachine.c ****             
 784:/Users/marklee/Documents/xcode/avr/DTU/Robot_test/Robot_test/mainStateMachine.c ****         case STOP:
 785:/Users/marklee/Documents/xcode/avr/DTU/Robot_test/Robot_test/mainStateMachine.c ****             if (wallStateMessage == 0)
 2253               	.LM309:
 2254 0b38 8091 0000 		lds r24,wallStateMessage
 2255 0b3c 9091 0000 		lds r25,wallStateMessage+1
 2256 0b40 892B      		or r24,r25
 2257 0b42 01F4      		brne .L202
 786:/Users/marklee/Documents/xcode/avr/DTU/Robot_test/Robot_test/mainStateMachine.c ****             {
 787:/Users/marklee/Documents/xcode/avr/DTU/Robot_test/Robot_test/mainStateMachine.c ****                 sendUartToInterface('C', "SW6");
 2259               	.LM310:
 2260 0b44 60E0      		ldi r22,lo8(.LC27)
 2261 0b46 70E0      		ldi r23,hi8(.LC27)
 2262 0b48 83E4      		ldi r24,lo8(67)
 2263 0b4a 0E94 0000 		call sendUartToInterface
 788:/Users/marklee/Documents/xcode/avr/DTU/Robot_test/Robot_test/mainStateMachine.c ****                 wallStateMessage = 1;
 2265               	.LM311:
 2266 0b4e 81E0      		ldi r24,lo8(1)
 2267 0b50 90E0      		ldi r25,0
 2268 0b52 9093 0000 		sts wallStateMessage+1,r25
 2269 0b56 8093 0000 		sts wallStateMessage,r24
 2270               	.L202:
 789:/Users/marklee/Documents/xcode/avr/DTU/Robot_test/Robot_test/mainStateMachine.c ****             }
 790:/Users/marklee/Documents/xcode/avr/DTU/Robot_test/Robot_test/mainStateMachine.c ****             
 791:/Users/marklee/Documents/xcode/avr/DTU/Robot_test/Robot_test/mainStateMachine.c ****             // the end
 792:/Users/marklee/Documents/xcode/avr/DTU/Robot_test/Robot_test/mainStateMachine.c ****             stop();
 2272               	.LM312:
 2273 0b5a 0E94 0000 		call stop
 793:/Users/marklee/Documents/xcode/avr/DTU/Robot_test/Robot_test/mainStateMachine.c ****             wallStateMessage = 0;
 2275               	.LM313:
 2276 0b5e 1092 0000 		sts wallStateMessage+1,__zero_reg__
 2277 0b62 1092 0000 		sts wallStateMessage,__zero_reg__
 2278 0b66 0895      		ret
 2280               	.Lscope16:
 2281               		.section	.rodata.str1.1
 2282               	.LC28:
 2283 02b6 5331 00   		.string	"S1"
 2284               	.LC29:
 2285 02b9 5332 00   		.string	"S2"
 2286               	.LC30:
 2287 02bc 5333 00   		.string	"S3"
 2288               	.LC31:
 2289 02bf 4F66 6620 		.string	"Off line\r\n"
 2289      6C69 6E65 
 2289      0D0A 00
 2290               	.LC32:
 2291 02ca 666F 756E 		.string	"found line\r\n"
 2291      6420 6C69 
 2291      6E65 0D0A 
 2291      00
 2292               	.LC33:
 2293 02d7 5334 00   		.string	"S4"
 2294               	.LC34:
 2295 02da 5335 00   		.string	"S5"
 2296               	.LC35:
 2297 02dd 5335 2E31 		.string	"S5.1"
 2297      00
 2298               	.LC36:
 2299 02e2 5336 00   		.string	"S6"
 2300               	.LC37:
 2301 02e5 570D 0A00 		.string	"W\r\n"
 2302               	.LC38:
 2303 02e9 5337 00   		.string	"S7"
 2304               		.text
 2306               	.global	mainState
 2308               	mainState:
 794:/Users/marklee/Documents/xcode/avr/DTU/Robot_test/Robot_test/mainStateMachine.c ****             
 795:/Users/marklee/Documents/xcode/avr/DTU/Robot_test/Robot_test/mainStateMachine.c ****             //            break;
 796:/Users/marklee/Documents/xcode/avr/DTU/Robot_test/Robot_test/mainStateMachine.c ****             
 797:/Users/marklee/Documents/xcode/avr/DTU/Robot_test/Robot_test/mainStateMachine.c ****         default:
 798:/Users/marklee/Documents/xcode/avr/DTU/Robot_test/Robot_test/mainStateMachine.c ****             break;
 799:/Users/marklee/Documents/xcode/avr/DTU/Robot_test/Robot_test/mainStateMachine.c ****     }
 800:/Users/marklee/Documents/xcode/avr/DTU/Robot_test/Robot_test/mainStateMachine.c **** }
 801:/Users/marklee/Documents/xcode/avr/DTU/Robot_test/Robot_test/mainStateMachine.c **** 
 802:/Users/marklee/Documents/xcode/avr/DTU/Robot_test/Robot_test/mainStateMachine.c **** 
 803:/Users/marklee/Documents/xcode/avr/DTU/Robot_test/Robot_test/mainStateMachine.c **** void mainState(void)
 804:/Users/marklee/Documents/xcode/avr/DTU/Robot_test/Robot_test/mainStateMachine.c **** {
 2310               	.LM314:
 2311               	.LFBB17:
 2312               	/* prologue: function */
 2313               	/* frame size = 0 */
 2314               	/* stack size = 0 */
 2315               	.L__stack_usage = 0
 805:/Users/marklee/Documents/xcode/avr/DTU/Robot_test/Robot_test/mainStateMachine.c ****     
 806:/Users/marklee/Documents/xcode/avr/DTU/Robot_test/Robot_test/mainStateMachine.c ****     switch (state)
 2317               	.LM315:
 2318 0b68 8091 0000 		lds r24,state
 2319 0b6c 90E0      		ldi r25,0
 2320 0b6e 8830      		cpi r24,8
 2321 0b70 9105      		cpc r25,__zero_reg__
 2322 0b72 00F0      		brlo .+2
 2323 0b74 00C0      		rjmp .L215
 2324 0b76 FC01      		movw r30,r24
 2325 0b78 E050      		subi r30,lo8(-(gs(.L218)))
 2326 0b7a F040      		sbci r31,hi8(-(gs(.L218)))
 807:/Users/marklee/Documents/xcode/avr/DTU/Robot_test/Robot_test/mainStateMachine.c ****     {
 808:/Users/marklee/Documents/xcode/avr/DTU/Robot_test/Robot_test/mainStateMachine.c ****         case FIND_LINE:
 809:/Users/marklee/Documents/xcode/avr/DTU/Robot_test/Robot_test/mainStateMachine.c ****             if (stateMessage == 0)
 810:/Users/marklee/Documents/xcode/avr/DTU/Robot_test/Robot_test/mainStateMachine.c ****             {
 811:/Users/marklee/Documents/xcode/avr/DTU/Robot_test/Robot_test/mainStateMachine.c ****                 sendUartToInterface('C', "S1");
 812:/Users/marklee/Documents/xcode/avr/DTU/Robot_test/Robot_test/mainStateMachine.c ****                 stateMessage = 1;
 813:/Users/marklee/Documents/xcode/avr/DTU/Robot_test/Robot_test/mainStateMachine.c ****             }
 814:/Users/marklee/Documents/xcode/avr/DTU/Robot_test/Robot_test/mainStateMachine.c ****             
 815:/Users/marklee/Documents/xcode/avr/DTU/Robot_test/Robot_test/mainStateMachine.c ****             if (startDistance == 0) {
 816:/Users/marklee/Documents/xcode/avr/DTU/Robot_test/Robot_test/mainStateMachine.c ****                 driveDistanceInCM(20);
 817:/Users/marklee/Documents/xcode/avr/DTU/Robot_test/Robot_test/mainStateMachine.c ****                 startDistance = 1;
 818:/Users/marklee/Documents/xcode/avr/DTU/Robot_test/Robot_test/mainStateMachine.c ****             }
 819:/Users/marklee/Documents/xcode/avr/DTU/Robot_test/Robot_test/mainStateMachine.c ****             
 820:/Users/marklee/Documents/xcode/avr/DTU/Robot_test/Robot_test/mainStateMachine.c ****             findLine();
 821:/Users/marklee/Documents/xcode/avr/DTU/Robot_test/Robot_test/mainStateMachine.c ****             
 822:/Users/marklee/Documents/xcode/avr/DTU/Robot_test/Robot_test/mainStateMachine.c ****             if (lineFoundFlag)
 823:/Users/marklee/Documents/xcode/avr/DTU/Robot_test/Robot_test/mainStateMachine.c ****             {
 824:/Users/marklee/Documents/xcode/avr/DTU/Robot_test/Robot_test/mainStateMachine.c ****                 stopTimeMs(500);
 825:/Users/marklee/Documents/xcode/avr/DTU/Robot_test/Robot_test/mainStateMachine.c ****                 turnToLine(RIGHT);
 826:/Users/marklee/Documents/xcode/avr/DTU/Robot_test/Robot_test/mainStateMachine.c ****                 stopTimeMs(500);
 827:/Users/marklee/Documents/xcode/avr/DTU/Robot_test/Robot_test/mainStateMachine.c ****                 
 828:/Users/marklee/Documents/xcode/avr/DTU/Robot_test/Robot_test/mainStateMachine.c ****                 stateMessage = 0;
 829:/Users/marklee/Documents/xcode/avr/DTU/Robot_test/Robot_test/mainStateMachine.c ****                 state = BEFORE_LINE_DISRUPTION;
 830:/Users/marklee/Documents/xcode/avr/DTU/Robot_test/Robot_test/mainStateMachine.c ****             }
 831:/Users/marklee/Documents/xcode/avr/DTU/Robot_test/Robot_test/mainStateMachine.c ****             lineFoundFlag = 0;
 832:/Users/marklee/Documents/xcode/avr/DTU/Robot_test/Robot_test/mainStateMachine.c **** 
 833:/Users/marklee/Documents/xcode/avr/DTU/Robot_test/Robot_test/mainStateMachine.c ****             break;
 834:/Users/marklee/Documents/xcode/avr/DTU/Robot_test/Robot_test/mainStateMachine.c ****         
 835:/Users/marklee/Documents/xcode/avr/DTU/Robot_test/Robot_test/mainStateMachine.c ****         case BEFORE_LINE_DISRUPTION:
 836:/Users/marklee/Documents/xcode/avr/DTU/Robot_test/Robot_test/mainStateMachine.c ****             if (stateMessage == 0)
 837:/Users/marklee/Documents/xcode/avr/DTU/Robot_test/Robot_test/mainStateMachine.c ****             {
 838:/Users/marklee/Documents/xcode/avr/DTU/Robot_test/Robot_test/mainStateMachine.c ****                 sendUartToInterface('C', "S2");
 839:/Users/marklee/Documents/xcode/avr/DTU/Robot_test/Robot_test/mainStateMachine.c ****                 stateMessage = 1;
 840:/Users/marklee/Documents/xcode/avr/DTU/Robot_test/Robot_test/mainStateMachine.c ****             }
 841:/Users/marklee/Documents/xcode/avr/DTU/Robot_test/Robot_test/mainStateMachine.c **** 
 842:/Users/marklee/Documents/xcode/avr/DTU/Robot_test/Robot_test/mainStateMachine.c ****             followLine();
 843:/Users/marklee/Documents/xcode/avr/DTU/Robot_test/Robot_test/mainStateMachine.c ****             
 844:/Users/marklee/Documents/xcode/avr/DTU/Robot_test/Robot_test/mainStateMachine.c ****             if (newLine == 1 || newLine == 3) {
 845:/Users/marklee/Documents/xcode/avr/DTU/Robot_test/Robot_test/mainStateMachine.c ****                 // drive forward 4cm 40/0.115 = 348
 846:/Users/marklee/Documents/xcode/avr/DTU/Robot_test/Robot_test/mainStateMachine.c ****                 driveDistanceEncoder(348);
 847:/Users/marklee/Documents/xcode/avr/DTU/Robot_test/Robot_test/mainStateMachine.c ****                 while(!adjustSpeed);
 848:/Users/marklee/Documents/xcode/avr/DTU/Robot_test/Robot_test/mainStateMachine.c ****                 followLine();
 849:/Users/marklee/Documents/xcode/avr/DTU/Robot_test/Robot_test/mainStateMachine.c ****                 stateMessage = 0;
 850:/Users/marklee/Documents/xcode/avr/DTU/Robot_test/Robot_test/mainStateMachine.c ****                 state = LINE_DISRUPTION;
 851:/Users/marklee/Documents/xcode/avr/DTU/Robot_test/Robot_test/mainStateMachine.c ****             }
 852:/Users/marklee/Documents/xcode/avr/DTU/Robot_test/Robot_test/mainStateMachine.c ****             
 853:/Users/marklee/Documents/xcode/avr/DTU/Robot_test/Robot_test/mainStateMachine.c ****             break;
 854:/Users/marklee/Documents/xcode/avr/DTU/Robot_test/Robot_test/mainStateMachine.c ****             
 855:/Users/marklee/Documents/xcode/avr/DTU/Robot_test/Robot_test/mainStateMachine.c ****         case LINE_DISRUPTION:
 856:/Users/marklee/Documents/xcode/avr/DTU/Robot_test/Robot_test/mainStateMachine.c ****             if (stateMessage == 0)
 857:/Users/marklee/Documents/xcode/avr/DTU/Robot_test/Robot_test/mainStateMachine.c ****             {
 858:/Users/marklee/Documents/xcode/avr/DTU/Robot_test/Robot_test/mainStateMachine.c ****                 sendUartToInterface('C', "S3");
 859:/Users/marklee/Documents/xcode/avr/DTU/Robot_test/Robot_test/mainStateMachine.c ****                 stateMessage = 1;
 860:/Users/marklee/Documents/xcode/avr/DTU/Robot_test/Robot_test/mainStateMachine.c ****             }
 861:/Users/marklee/Documents/xcode/avr/DTU/Robot_test/Robot_test/mainStateMachine.c ****             
 862:/Users/marklee/Documents/xcode/avr/DTU/Robot_test/Robot_test/mainStateMachine.c ****             
 863:/Users/marklee/Documents/xcode/avr/DTU/Robot_test/Robot_test/mainStateMachine.c ****             
 864:/Users/marklee/Documents/xcode/avr/DTU/Robot_test/Robot_test/mainStateMachine.c ****             linecount = getCountNoLine();
 865:/Users/marklee/Documents/xcode/avr/DTU/Robot_test/Robot_test/mainStateMachine.c ****             itoa(linecount, noLineChar, 10);
 866:/Users/marklee/Documents/xcode/avr/DTU/Robot_test/Robot_test/mainStateMachine.c ****             uart_puts(noLineChar);
 867:/Users/marklee/Documents/xcode/avr/DTU/Robot_test/Robot_test/mainStateMachine.c ****             uart_puts("\r\n");
 868:/Users/marklee/Documents/xcode/avr/DTU/Robot_test/Robot_test/mainStateMachine.c **** 
 869:/Users/marklee/Documents/xcode/avr/DTU/Robot_test/Robot_test/mainStateMachine.c ****             followLine();
 870:/Users/marklee/Documents/xcode/avr/DTU/Robot_test/Robot_test/mainStateMachine.c ****             
 871:/Users/marklee/Documents/xcode/avr/DTU/Robot_test/Robot_test/mainStateMachine.c ****             if (linecount >= 20)
 872:/Users/marklee/Documents/xcode/avr/DTU/Robot_test/Robot_test/mainStateMachine.c ****             {
 873:/Users/marklee/Documents/xcode/avr/DTU/Robot_test/Robot_test/mainStateMachine.c ****                 uart_puts("Off line\r\n");
 874:/Users/marklee/Documents/xcode/avr/DTU/Robot_test/Robot_test/mainStateMachine.c ****                 drive(SOFT_LEFT, speed); // drive left
 875:/Users/marklee/Documents/xcode/avr/DTU/Robot_test/Robot_test/mainStateMachine.c ****                 linecount = 0;
 876:/Users/marklee/Documents/xcode/avr/DTU/Robot_test/Robot_test/mainStateMachine.c ****             }
 877:/Users/marklee/Documents/xcode/avr/DTU/Robot_test/Robot_test/mainStateMachine.c ****             
 878:/Users/marklee/Documents/xcode/avr/DTU/Robot_test/Robot_test/mainStateMachine.c ****             if (newLine == 1 || newLine == 3)
 879:/Users/marklee/Documents/xcode/avr/DTU/Robot_test/Robot_test/mainStateMachine.c ****             {
 880:/Users/marklee/Documents/xcode/avr/DTU/Robot_test/Robot_test/mainStateMachine.c ****                 uart_puts("found line\r\n");
 881:/Users/marklee/Documents/xcode/avr/DTU/Robot_test/Robot_test/mainStateMachine.c ****                 followLine();
 882:/Users/marklee/Documents/xcode/avr/DTU/Robot_test/Robot_test/mainStateMachine.c ****                 linecount = 0;
 883:/Users/marklee/Documents/xcode/avr/DTU/Robot_test/Robot_test/mainStateMachine.c ****                 stateMessage = 0;
 884:/Users/marklee/Documents/xcode/avr/DTU/Robot_test/Robot_test/mainStateMachine.c ****                 state = FULL_CIRCLE;
 885:/Users/marklee/Documents/xcode/avr/DTU/Robot_test/Robot_test/mainStateMachine.c ****             }
 886:/Users/marklee/Documents/xcode/avr/DTU/Robot_test/Robot_test/mainStateMachine.c ****             
 887:/Users/marklee/Documents/xcode/avr/DTU/Robot_test/Robot_test/mainStateMachine.c **** 
 888:/Users/marklee/Documents/xcode/avr/DTU/Robot_test/Robot_test/mainStateMachine.c ****             
 889:/Users/marklee/Documents/xcode/avr/DTU/Robot_test/Robot_test/mainStateMachine.c ****             break;
 890:/Users/marklee/Documents/xcode/avr/DTU/Robot_test/Robot_test/mainStateMachine.c ****         
 891:/Users/marklee/Documents/xcode/avr/DTU/Robot_test/Robot_test/mainStateMachine.c ****             
 892:/Users/marklee/Documents/xcode/avr/DTU/Robot_test/Robot_test/mainStateMachine.c ****         case FULL_CIRCLE:
 893:/Users/marklee/Documents/xcode/avr/DTU/Robot_test/Robot_test/mainStateMachine.c ****             if (stateMessage == 0)
 894:/Users/marklee/Documents/xcode/avr/DTU/Robot_test/Robot_test/mainStateMachine.c ****             {
 895:/Users/marklee/Documents/xcode/avr/DTU/Robot_test/Robot_test/mainStateMachine.c ****                 sendUartToInterface('C', "S4");
 896:/Users/marklee/Documents/xcode/avr/DTU/Robot_test/Robot_test/mainStateMachine.c ****                 stateMessage = 1;
 897:/Users/marklee/Documents/xcode/avr/DTU/Robot_test/Robot_test/mainStateMachine.c ****             }
 898:/Users/marklee/Documents/xcode/avr/DTU/Robot_test/Robot_test/mainStateMachine.c ****             
 899:/Users/marklee/Documents/xcode/avr/DTU/Robot_test/Robot_test/mainStateMachine.c ****             followLine();
 900:/Users/marklee/Documents/xcode/avr/DTU/Robot_test/Robot_test/mainStateMachine.c ****             
 901:/Users/marklee/Documents/xcode/avr/DTU/Robot_test/Robot_test/mainStateMachine.c ****             if (newLine == 15 || newLine == 7 || newLine == 14)
 902:/Users/marklee/Documents/xcode/avr/DTU/Robot_test/Robot_test/mainStateMachine.c ****             {
 903:/Users/marklee/Documents/xcode/avr/DTU/Robot_test/Robot_test/mainStateMachine.c ****                 stopTimeMs(1000);
 904:/Users/marklee/Documents/xcode/avr/DTU/Robot_test/Robot_test/mainStateMachine.c ****                 octagon();
 905:/Users/marklee/Documents/xcode/avr/DTU/Robot_test/Robot_test/mainStateMachine.c ****                 //                fullCircle();
 906:/Users/marklee/Documents/xcode/avr/DTU/Robot_test/Robot_test/mainStateMachine.c ****             }
 907:/Users/marklee/Documents/xcode/avr/DTU/Robot_test/Robot_test/mainStateMachine.c ****             
 908:/Users/marklee/Documents/xcode/avr/DTU/Robot_test/Robot_test/mainStateMachine.c ****             if (fullCircleDone)
 909:/Users/marklee/Documents/xcode/avr/DTU/Robot_test/Robot_test/mainStateMachine.c ****             {
 910:/Users/marklee/Documents/xcode/avr/DTU/Robot_test/Robot_test/mainStateMachine.c ****                 stateMessage = 0;
 911:/Users/marklee/Documents/xcode/avr/DTU/Robot_test/Robot_test/mainStateMachine.c ****                 state = HIGH_SPEED_CURVE;
 912:/Users/marklee/Documents/xcode/avr/DTU/Robot_test/Robot_test/mainStateMachine.c ****             }
 913:/Users/marklee/Documents/xcode/avr/DTU/Robot_test/Robot_test/mainStateMachine.c ****             
 914:/Users/marklee/Documents/xcode/avr/DTU/Robot_test/Robot_test/mainStateMachine.c ****             break;
 915:/Users/marklee/Documents/xcode/avr/DTU/Robot_test/Robot_test/mainStateMachine.c ****             
 916:/Users/marklee/Documents/xcode/avr/DTU/Robot_test/Robot_test/mainStateMachine.c ****         
 917:/Users/marklee/Documents/xcode/avr/DTU/Robot_test/Robot_test/mainStateMachine.c ****         case HIGH_SPEED_CURVE:
 918:/Users/marklee/Documents/xcode/avr/DTU/Robot_test/Robot_test/mainStateMachine.c ****             
 919:/Users/marklee/Documents/xcode/avr/DTU/Robot_test/Robot_test/mainStateMachine.c ****             if (stateMessage == 0)
 920:/Users/marklee/Documents/xcode/avr/DTU/Robot_test/Robot_test/mainStateMachine.c ****             {
 921:/Users/marklee/Documents/xcode/avr/DTU/Robot_test/Robot_test/mainStateMachine.c ****                 sendUartToInterface('C', "S5");
 922:/Users/marklee/Documents/xcode/avr/DTU/Robot_test/Robot_test/mainStateMachine.c ****                 stateMessage = 1;
 923:/Users/marklee/Documents/xcode/avr/DTU/Robot_test/Robot_test/mainStateMachine.c ****             }
 924:/Users/marklee/Documents/xcode/avr/DTU/Robot_test/Robot_test/mainStateMachine.c ****             
 925:/Users/marklee/Documents/xcode/avr/DTU/Robot_test/Robot_test/mainStateMachine.c ****             followLine();
 926:/Users/marklee/Documents/xcode/avr/DTU/Robot_test/Robot_test/mainStateMachine.c ****             
 927:/Users/marklee/Documents/xcode/avr/DTU/Robot_test/Robot_test/mainStateMachine.c ****             if (newLine == 3 || newLine == 7)
 928:/Users/marklee/Documents/xcode/avr/DTU/Robot_test/Robot_test/mainStateMachine.c ****             {
 929:/Users/marklee/Documents/xcode/avr/DTU/Robot_test/Robot_test/mainStateMachine.c ****                 
 930:/Users/marklee/Documents/xcode/avr/DTU/Robot_test/Robot_test/mainStateMachine.c ****                 if (!highSpeedMark)
 931:/Users/marklee/Documents/xcode/avr/DTU/Robot_test/Robot_test/mainStateMachine.c ****                 {
 932:/Users/marklee/Documents/xcode/avr/DTU/Robot_test/Robot_test/mainStateMachine.c ****                     sendUartToInterface('C', "S5.1");
 933:/Users/marklee/Documents/xcode/avr/DTU/Robot_test/Robot_test/mainStateMachine.c ****                     driveDistanceEncoder(435);
 934:/Users/marklee/Documents/xcode/avr/DTU/Robot_test/Robot_test/mainStateMachine.c ****                     speed = 180;
 935:/Users/marklee/Documents/xcode/avr/DTU/Robot_test/Robot_test/mainStateMachine.c ****                     highSpeedMark = 1;
 936:/Users/marklee/Documents/xcode/avr/DTU/Robot_test/Robot_test/mainStateMachine.c ****                 }
 937:/Users/marklee/Documents/xcode/avr/DTU/Robot_test/Robot_test/mainStateMachine.c **** 
 938:/Users/marklee/Documents/xcode/avr/DTU/Robot_test/Robot_test/mainStateMachine.c ****             }
 939:/Users/marklee/Documents/xcode/avr/DTU/Robot_test/Robot_test/mainStateMachine.c ****             else if (newLine == 15 || newLine == 7 || newLine == 14)
 940:/Users/marklee/Documents/xcode/avr/DTU/Robot_test/Robot_test/mainStateMachine.c ****             {
 941:/Users/marklee/Documents/xcode/avr/DTU/Robot_test/Robot_test/mainStateMachine.c ****                 stateMessage = 0;
 942:/Users/marklee/Documents/xcode/avr/DTU/Robot_test/Robot_test/mainStateMachine.c ****                 state = END_OF_LINE;
 943:/Users/marklee/Documents/xcode/avr/DTU/Robot_test/Robot_test/mainStateMachine.c ****             }
 944:/Users/marklee/Documents/xcode/avr/DTU/Robot_test/Robot_test/mainStateMachine.c ****             
 945:/Users/marklee/Documents/xcode/avr/DTU/Robot_test/Robot_test/mainStateMachine.c ****             break;
 946:/Users/marklee/Documents/xcode/avr/DTU/Robot_test/Robot_test/mainStateMachine.c ****             
 947:/Users/marklee/Documents/xcode/avr/DTU/Robot_test/Robot_test/mainStateMachine.c ****         
 948:/Users/marklee/Documents/xcode/avr/DTU/Robot_test/Robot_test/mainStateMachine.c ****         case END_OF_LINE:
 949:/Users/marklee/Documents/xcode/avr/DTU/Robot_test/Robot_test/mainStateMachine.c ****             
 950:/Users/marklee/Documents/xcode/avr/DTU/Robot_test/Robot_test/mainStateMachine.c ****             if (stateMessage == 0)
 951:/Users/marklee/Documents/xcode/avr/DTU/Robot_test/Robot_test/mainStateMachine.c ****             {
 952:/Users/marklee/Documents/xcode/avr/DTU/Robot_test/Robot_test/mainStateMachine.c ****                 sendUartToInterface('C', "S6");
 953:/Users/marklee/Documents/xcode/avr/DTU/Robot_test/Robot_test/mainStateMachine.c ****                 stateMessage = 1;
 954:/Users/marklee/Documents/xcode/avr/DTU/Robot_test/Robot_test/mainStateMachine.c ****             }
 955:/Users/marklee/Documents/xcode/avr/DTU/Robot_test/Robot_test/mainStateMachine.c ****             
 956:/Users/marklee/Documents/xcode/avr/DTU/Robot_test/Robot_test/mainStateMachine.c ****             
 957:/Users/marklee/Documents/xcode/avr/DTU/Robot_test/Robot_test/mainStateMachine.c ****             // Reset Atmega328p
 958:/Users/marklee/Documents/xcode/avr/DTU/Robot_test/Robot_test/mainStateMachine.c ****             DDRD |= (1<<PD4);
 959:/Users/marklee/Documents/xcode/avr/DTU/Robot_test/Robot_test/mainStateMachine.c ****             PORTD &= ~(1<<PD4);
 960:/Users/marklee/Documents/xcode/avr/DTU/Robot_test/Robot_test/mainStateMachine.c ****             _delay_us(5);
 961:/Users/marklee/Documents/xcode/avr/DTU/Robot_test/Robot_test/mainStateMachine.c ****             PORTD |= (1<<PD4);
 962:/Users/marklee/Documents/xcode/avr/DTU/Robot_test/Robot_test/mainStateMachine.c ****             stopTimeMs(1000);
 963:/Users/marklee/Documents/xcode/avr/DTU/Robot_test/Robot_test/mainStateMachine.c ****             
 964:/Users/marklee/Documents/xcode/avr/DTU/Robot_test/Robot_test/mainStateMachine.c ****             uart1_puts("W\r\n");    // send turret to 90 degrees
 965:/Users/marklee/Documents/xcode/avr/DTU/Robot_test/Robot_test/mainStateMachine.c ****             
 966:/Users/marklee/Documents/xcode/avr/DTU/Robot_test/Robot_test/mainStateMachine.c ****             stopTimeMs(2000);
 967:/Users/marklee/Documents/xcode/avr/DTU/Robot_test/Robot_test/mainStateMachine.c ****             
 968:/Users/marklee/Documents/xcode/avr/DTU/Robot_test/Robot_test/mainStateMachine.c ****             stateMessage = 0;
 969:/Users/marklee/Documents/xcode/avr/DTU/Robot_test/Robot_test/mainStateMachine.c ****             state = WALL_CORNERING;
 970:/Users/marklee/Documents/xcode/avr/DTU/Robot_test/Robot_test/mainStateMachine.c ****             
 971:/Users/marklee/Documents/xcode/avr/DTU/Robot_test/Robot_test/mainStateMachine.c ****             break;
 972:/Users/marklee/Documents/xcode/avr/DTU/Robot_test/Robot_test/mainStateMachine.c ****         
 973:/Users/marklee/Documents/xcode/avr/DTU/Robot_test/Robot_test/mainStateMachine.c ****             
 974:/Users/marklee/Documents/xcode/avr/DTU/Robot_test/Robot_test/mainStateMachine.c ****         case WALL_CORNERING:
 975:/Users/marklee/Documents/xcode/avr/DTU/Robot_test/Robot_test/mainStateMachine.c ****             if (stateMessage == 0)
 976:/Users/marklee/Documents/xcode/avr/DTU/Robot_test/Robot_test/mainStateMachine.c ****             {
 977:/Users/marklee/Documents/xcode/avr/DTU/Robot_test/Robot_test/mainStateMachine.c ****                 sendUartToInterface('C', "S7");
 978:/Users/marklee/Documents/xcode/avr/DTU/Robot_test/Robot_test/mainStateMachine.c ****                 stateMessage = 1;
 979:/Users/marklee/Documents/xcode/avr/DTU/Robot_test/Robot_test/mainStateMachine.c ****             }
 980:/Users/marklee/Documents/xcode/avr/DTU/Robot_test/Robot_test/mainStateMachine.c ****             
 981:/Users/marklee/Documents/xcode/avr/DTU/Robot_test/Robot_test/mainStateMachine.c ****             followWallStateMachine();
 982:/Users/marklee/Documents/xcode/avr/DTU/Robot_test/Robot_test/mainStateMachine.c ****             
 983:/Users/marklee/Documents/xcode/avr/DTU/Robot_test/Robot_test/mainStateMachine.c ****             stateMessage = 0;
 984:/Users/marklee/Documents/xcode/avr/DTU/Robot_test/Robot_test/mainStateMachine.c ****             state = FINAL_STOP;
 985:/Users/marklee/Documents/xcode/avr/DTU/Robot_test/Robot_test/mainStateMachine.c ****             
 986:/Users/marklee/Documents/xcode/avr/DTU/Robot_test/Robot_test/mainStateMachine.c ****             break;
 987:/Users/marklee/Documents/xcode/avr/DTU/Robot_test/Robot_test/mainStateMachine.c ****             
 988:/Users/marklee/Documents/xcode/avr/DTU/Robot_test/Robot_test/mainStateMachine.c ****         case FINAL_STOP:
 989:/Users/marklee/Documents/xcode/avr/DTU/Robot_test/Robot_test/mainStateMachine.c ****             if (stateMessage == 0)
 2328               	.LM316:
 2329 0b7c 8091 0000 		lds r24,stateMessage
 2330 0b80 9091 0000 		lds r25,stateMessage+1
 806:/Users/marklee/Documents/xcode/avr/DTU/Robot_test/Robot_test/mainStateMachine.c ****     switch (state)
 2332               	.LM317:
 2333 0b84 0C94 0000 		jmp __tablejump2__
 2334               		.section	.progmem.gcc_sw_table,"a",@progbits
 2335               		.p2align	1
 2336               	.L218:
 2337 0000 0000      		.word gs(.L217)
 2338 0002 0000      		.word gs(.L219)
 2339 0004 0000      		.word gs(.L220)
 2340 0006 0000      		.word gs(.L221)
 2341 0008 0000      		.word gs(.L222)
 2342 000a 0000      		.word gs(.L223)
 2343 000c 0000      		.word gs(.L224)
 2344 000e 0000      		.word gs(.L225)
 2345               		.text
 2346               	.L217:
 809:/Users/marklee/Documents/xcode/avr/DTU/Robot_test/Robot_test/mainStateMachine.c ****             if (stateMessage == 0)
 2348               	.LM318:
 2349 0b88 892B      		or r24,r25
 2350 0b8a 01F4      		brne .L226
 811:/Users/marklee/Documents/xcode/avr/DTU/Robot_test/Robot_test/mainStateMachine.c ****                 sendUartToInterface('C', "S1");
 2352               	.LM319:
 2353 0b8c 60E0      		ldi r22,lo8(.LC28)
 2354 0b8e 70E0      		ldi r23,hi8(.LC28)
 2355 0b90 83E4      		ldi r24,lo8(67)
 2356 0b92 0E94 0000 		call sendUartToInterface
 812:/Users/marklee/Documents/xcode/avr/DTU/Robot_test/Robot_test/mainStateMachine.c ****                 stateMessage = 1;
 2358               	.LM320:
 2359 0b96 81E0      		ldi r24,lo8(1)
 2360 0b98 90E0      		ldi r25,0
 2361 0b9a 9093 0000 		sts stateMessage+1,r25
 2362 0b9e 8093 0000 		sts stateMessage,r24
 2363               	.L226:
 815:/Users/marklee/Documents/xcode/avr/DTU/Robot_test/Robot_test/mainStateMachine.c ****             if (startDistance == 0) {
 2365               	.LM321:
 2366 0ba2 8091 0000 		lds r24,startDistance
 2367 0ba6 9091 0000 		lds r25,startDistance+1
 2368 0baa 892B      		or r24,r25
 2369 0bac 01F4      		brne .L227
 2370               	.LBB130:
 2371               	.LBB131:
 229:/Users/marklee/Documents/xcode/avr/DTU/Robot_test/Robot_test/mainStateMachine.c ****     driveDistanceEncoder(encoderValue);
 2373               	.LM322:
 2374 0bae 8BEC      		ldi r24,lo8(-53)
 2375 0bb0 96E0      		ldi r25,lo8(6)
 2376 0bb2 0E94 0000 		call driveDistanceEncoder
 2377               	.LBE131:
 2378               	.LBE130:
 817:/Users/marklee/Documents/xcode/avr/DTU/Robot_test/Robot_test/mainStateMachine.c ****                 startDistance = 1;
 2380               	.LM323:
 2381 0bb6 81E0      		ldi r24,lo8(1)
 2382 0bb8 90E0      		ldi r25,0
 2383 0bba 9093 0000 		sts startDistance+1,r25
 2384 0bbe 8093 0000 		sts startDistance,r24
 2385               	.L227:
 820:/Users/marklee/Documents/xcode/avr/DTU/Robot_test/Robot_test/mainStateMachine.c ****             findLine();
 2387               	.LM324:
 2388 0bc2 0E94 0000 		call findLine
 822:/Users/marklee/Documents/xcode/avr/DTU/Robot_test/Robot_test/mainStateMachine.c ****             if (lineFoundFlag)
 2390               	.LM325:
 2391 0bc6 8091 0000 		lds r24,lineFoundFlag
 2392 0bca 9091 0000 		lds r25,lineFoundFlag+1
 2393 0bce 892B      		or r24,r25
 2394 0bd0 01F0      		breq .L228
 824:/Users/marklee/Documents/xcode/avr/DTU/Robot_test/Robot_test/mainStateMachine.c ****                 stopTimeMs(500);
 2396               	.LM326:
 2397 0bd2 84EF      		ldi r24,lo8(-12)
 2398 0bd4 91E0      		ldi r25,lo8(1)
 2399 0bd6 0E94 0000 		call stopTimeMs
 825:/Users/marklee/Documents/xcode/avr/DTU/Robot_test/Robot_test/mainStateMachine.c ****                 turnToLine(RIGHT);
 2401               	.LM327:
 2402 0bda 81E0      		ldi r24,lo8(1)
 2403 0bdc 90E0      		ldi r25,0
 2404 0bde 0E94 0000 		call turnToLine
 826:/Users/marklee/Documents/xcode/avr/DTU/Robot_test/Robot_test/mainStateMachine.c ****                 stopTimeMs(500);
 2406               	.LM328:
 2407 0be2 84EF      		ldi r24,lo8(-12)
 2408 0be4 91E0      		ldi r25,lo8(1)
 2409 0be6 0E94 0000 		call stopTimeMs
 828:/Users/marklee/Documents/xcode/avr/DTU/Robot_test/Robot_test/mainStateMachine.c ****                 stateMessage = 0;
 2411               	.LM329:
 2412 0bea 1092 0000 		sts stateMessage+1,__zero_reg__
 2413 0bee 1092 0000 		sts stateMessage,__zero_reg__
 829:/Users/marklee/Documents/xcode/avr/DTU/Robot_test/Robot_test/mainStateMachine.c ****                 state = BEFORE_LINE_DISRUPTION;
 2415               	.LM330:
 2416 0bf2 81E0      		ldi r24,lo8(1)
 2417 0bf4 8093 0000 		sts state,r24
 2418               	.L228:
 831:/Users/marklee/Documents/xcode/avr/DTU/Robot_test/Robot_test/mainStateMachine.c ****             lineFoundFlag = 0;
 2420               	.LM331:
 2421 0bf8 1092 0000 		sts lineFoundFlag+1,__zero_reg__
 2422 0bfc 1092 0000 		sts lineFoundFlag,__zero_reg__
 833:/Users/marklee/Documents/xcode/avr/DTU/Robot_test/Robot_test/mainStateMachine.c ****             break;
 2424               	.LM332:
 2425 0c00 0895      		ret
 2426               	.L219:
 836:/Users/marklee/Documents/xcode/avr/DTU/Robot_test/Robot_test/mainStateMachine.c ****             if (stateMessage == 0)
 2428               	.LM333:
 2429 0c02 892B      		or r24,r25
 2430 0c04 01F4      		brne .L229
 838:/Users/marklee/Documents/xcode/avr/DTU/Robot_test/Robot_test/mainStateMachine.c ****                 sendUartToInterface('C', "S2");
 2432               	.LM334:
 2433 0c06 60E0      		ldi r22,lo8(.LC29)
 2434 0c08 70E0      		ldi r23,hi8(.LC29)
 2435 0c0a 83E4      		ldi r24,lo8(67)
 2436 0c0c 0E94 0000 		call sendUartToInterface
 839:/Users/marklee/Documents/xcode/avr/DTU/Robot_test/Robot_test/mainStateMachine.c ****                 stateMessage = 1;
 2438               	.LM335:
 2439 0c10 81E0      		ldi r24,lo8(1)
 2440 0c12 90E0      		ldi r25,0
 2441 0c14 9093 0000 		sts stateMessage+1,r25
 2442 0c18 8093 0000 		sts stateMessage,r24
 2443               	.L229:
 842:/Users/marklee/Documents/xcode/avr/DTU/Robot_test/Robot_test/mainStateMachine.c ****             followLine();
 2445               	.LM336:
 2446 0c1c 0E94 0000 		call followLine
 844:/Users/marklee/Documents/xcode/avr/DTU/Robot_test/Robot_test/mainStateMachine.c ****             if (newLine == 1 || newLine == 3) {
 2448               	.LM337:
 2449 0c20 8091 0000 		lds r24,newLine
 2450 0c24 9091 0000 		lds r25,newLine+1
 2451 0c28 0197      		sbiw r24,1
 2452 0c2a 01F0      		breq .L230
 844:/Users/marklee/Documents/xcode/avr/DTU/Robot_test/Robot_test/mainStateMachine.c ****             if (newLine == 1 || newLine == 3) {
 2454               	.LM338:
 2455 0c2c 8091 0000 		lds r24,newLine
 2456 0c30 9091 0000 		lds r25,newLine+1
 2457 0c34 0397      		sbiw r24,3
 2458 0c36 01F0      		breq .+2
 2459 0c38 00C0      		rjmp .L215
 2460               	.L230:
 846:/Users/marklee/Documents/xcode/avr/DTU/Robot_test/Robot_test/mainStateMachine.c ****                 driveDistanceEncoder(348);
 2462               	.LM339:
 2463 0c3a 8CE5      		ldi r24,lo8(92)
 2464 0c3c 91E0      		ldi r25,lo8(1)
 2465 0c3e 0E94 0000 		call driveDistanceEncoder
 2466               	.L232:
 847:/Users/marklee/Documents/xcode/avr/DTU/Robot_test/Robot_test/mainStateMachine.c ****                 while(!adjustSpeed);
 2468               	.LM340:
 2469 0c42 8091 0000 		lds r24,adjustSpeed
 2470 0c46 8823      		tst r24
 2471 0c48 01F0      		breq .L232
 848:/Users/marklee/Documents/xcode/avr/DTU/Robot_test/Robot_test/mainStateMachine.c ****                 followLine();
 2473               	.LM341:
 2474 0c4a 0E94 0000 		call followLine
 849:/Users/marklee/Documents/xcode/avr/DTU/Robot_test/Robot_test/mainStateMachine.c ****                 stateMessage = 0;
 2476               	.LM342:
 2477 0c4e 1092 0000 		sts stateMessage+1,__zero_reg__
 2478 0c52 1092 0000 		sts stateMessage,__zero_reg__
 850:/Users/marklee/Documents/xcode/avr/DTU/Robot_test/Robot_test/mainStateMachine.c ****                 state = LINE_DISRUPTION;
 2480               	.LM343:
 2481 0c56 82E0      		ldi r24,lo8(2)
 2482 0c58 00C0      		rjmp .L277
 2483               	.L220:
 856:/Users/marklee/Documents/xcode/avr/DTU/Robot_test/Robot_test/mainStateMachine.c ****             if (stateMessage == 0)
 2485               	.LM344:
 2486 0c5a 892B      		or r24,r25
 2487 0c5c 01F4      		brne .L233
 858:/Users/marklee/Documents/xcode/avr/DTU/Robot_test/Robot_test/mainStateMachine.c ****                 sendUartToInterface('C', "S3");
 2489               	.LM345:
 2490 0c5e 60E0      		ldi r22,lo8(.LC30)
 2491 0c60 70E0      		ldi r23,hi8(.LC30)
 2492 0c62 83E4      		ldi r24,lo8(67)
 2493 0c64 0E94 0000 		call sendUartToInterface
 859:/Users/marklee/Documents/xcode/avr/DTU/Robot_test/Robot_test/mainStateMachine.c ****                 stateMessage = 1;
 2495               	.LM346:
 2496 0c68 81E0      		ldi r24,lo8(1)
 2497 0c6a 90E0      		ldi r25,0
 2498 0c6c 9093 0000 		sts stateMessage+1,r25
 2499 0c70 8093 0000 		sts stateMessage,r24
 2500               	.L233:
 864:/Users/marklee/Documents/xcode/avr/DTU/Robot_test/Robot_test/mainStateMachine.c ****             linecount = getCountNoLine();
 2502               	.LM347:
 2503 0c74 0E94 0000 		call getCountNoLine
 2504 0c78 9093 0000 		sts linecount+1,r25
 2505 0c7c 8093 0000 		sts linecount,r24
 865:/Users/marklee/Documents/xcode/avr/DTU/Robot_test/Robot_test/mainStateMachine.c ****             itoa(linecount, noLineChar, 10);
 2507               	.LM348:
 2508 0c80 8091 0000 		lds r24,linecount
 2509 0c84 9091 0000 		lds r25,linecount+1
 2510               	.LBB132:
 2511               	.LBB133:
 2513               	.Ltext7:
 2515               	.LM349:
 2516 0c88 4AE0      		ldi r20,lo8(10)
 2517 0c8a 60E0      		ldi r22,lo8(noLineChar)
 2518 0c8c 70E0      		ldi r23,hi8(noLineChar)
 2519 0c8e 0E94 0000 		call __itoa_ncheck
 2520               	.LBE133:
 2521               	.LBE132:
 2523               	.Ltext8:
 866:/Users/marklee/Documents/xcode/avr/DTU/Robot_test/Robot_test/mainStateMachine.c ****             uart_puts(noLineChar);
 2525               	.LM350:
 2526 0c92 80E0      		ldi r24,lo8(noLineChar)
 2527 0c94 90E0      		ldi r25,hi8(noLineChar)
 2528 0c96 0E94 0000 		call uart_puts
 867:/Users/marklee/Documents/xcode/avr/DTU/Robot_test/Robot_test/mainStateMachine.c ****             uart_puts("\r\n");
 2530               	.LM351:
 2531 0c9a 80E0      		ldi r24,lo8(.LC0)
 2532 0c9c 90E0      		ldi r25,hi8(.LC0)
 2533 0c9e 0E94 0000 		call uart_puts
 869:/Users/marklee/Documents/xcode/avr/DTU/Robot_test/Robot_test/mainStateMachine.c ****             followLine();
 2535               	.LM352:
 2536 0ca2 0E94 0000 		call followLine
 871:/Users/marklee/Documents/xcode/avr/DTU/Robot_test/Robot_test/mainStateMachine.c ****             if (linecount >= 20)
 2538               	.LM353:
 2539 0ca6 8091 0000 		lds r24,linecount
 2540 0caa 9091 0000 		lds r25,linecount+1
 2541 0cae 4497      		sbiw r24,20
 2542 0cb0 04F0      		brlt .L234
 873:/Users/marklee/Documents/xcode/avr/DTU/Robot_test/Robot_test/mainStateMachine.c ****                 uart_puts("Off line\r\n");
 2544               	.LM354:
 2545 0cb2 80E0      		ldi r24,lo8(.LC31)
 2546 0cb4 90E0      		ldi r25,hi8(.LC31)
 2547 0cb6 0E94 0000 		call uart_puts
 874:/Users/marklee/Documents/xcode/avr/DTU/Robot_test/Robot_test/mainStateMachine.c ****                 drive(SOFT_LEFT, speed); // drive left
 2549               	.LM355:
 2550 0cba 6091 0000 		lds r22,speed
 2551 0cbe 7091 0000 		lds r23,speed+1
 2552 0cc2 8DE0      		ldi r24,lo8(13)
 2553 0cc4 90E0      		ldi r25,0
 2554 0cc6 0E94 0000 		call drive
 875:/Users/marklee/Documents/xcode/avr/DTU/Robot_test/Robot_test/mainStateMachine.c ****                 linecount = 0;
 2556               	.LM356:
 2557 0cca 1092 0000 		sts linecount+1,__zero_reg__
 2558 0cce 1092 0000 		sts linecount,__zero_reg__
 2559               	.L234:
 878:/Users/marklee/Documents/xcode/avr/DTU/Robot_test/Robot_test/mainStateMachine.c ****             if (newLine == 1 || newLine == 3)
 2561               	.LM357:
 2562 0cd2 8091 0000 		lds r24,newLine
 2563 0cd6 9091 0000 		lds r25,newLine+1
 2564 0cda 0197      		sbiw r24,1
 2565 0cdc 01F0      		breq .L235
 878:/Users/marklee/Documents/xcode/avr/DTU/Robot_test/Robot_test/mainStateMachine.c ****             if (newLine == 1 || newLine == 3)
 2567               	.LM358:
 2568 0cde 8091 0000 		lds r24,newLine
 2569 0ce2 9091 0000 		lds r25,newLine+1
 2570 0ce6 0397      		sbiw r24,3
 2571 0ce8 01F0      		breq .+2
 2572 0cea 00C0      		rjmp .L215
 2573               	.L235:
 880:/Users/marklee/Documents/xcode/avr/DTU/Robot_test/Robot_test/mainStateMachine.c ****                 uart_puts("found line\r\n");
 2575               	.LM359:
 2576 0cec 80E0      		ldi r24,lo8(.LC32)
 2577 0cee 90E0      		ldi r25,hi8(.LC32)
 2578 0cf0 0E94 0000 		call uart_puts
 881:/Users/marklee/Documents/xcode/avr/DTU/Robot_test/Robot_test/mainStateMachine.c ****                 followLine();
 2580               	.LM360:
 2581 0cf4 0E94 0000 		call followLine
 882:/Users/marklee/Documents/xcode/avr/DTU/Robot_test/Robot_test/mainStateMachine.c ****                 linecount = 0;
 2583               	.LM361:
 2584 0cf8 1092 0000 		sts linecount+1,__zero_reg__
 2585 0cfc 1092 0000 		sts linecount,__zero_reg__
 883:/Users/marklee/Documents/xcode/avr/DTU/Robot_test/Robot_test/mainStateMachine.c ****                 stateMessage = 0;
 2587               	.LM362:
 2588 0d00 1092 0000 		sts stateMessage+1,__zero_reg__
 2589 0d04 1092 0000 		sts stateMessage,__zero_reg__
 884:/Users/marklee/Documents/xcode/avr/DTU/Robot_test/Robot_test/mainStateMachine.c ****                 state = FULL_CIRCLE;
 2591               	.LM363:
 2592 0d08 83E0      		ldi r24,lo8(3)
 2593 0d0a 00C0      		rjmp .L277
 2594               	.L221:
 893:/Users/marklee/Documents/xcode/avr/DTU/Robot_test/Robot_test/mainStateMachine.c ****             if (stateMessage == 0)
 2596               	.LM364:
 2597 0d0c 892B      		or r24,r25
 2598 0d0e 01F4      		brne .L237
 895:/Users/marklee/Documents/xcode/avr/DTU/Robot_test/Robot_test/mainStateMachine.c ****                 sendUartToInterface('C', "S4");
 2600               	.LM365:
 2601 0d10 60E0      		ldi r22,lo8(.LC33)
 2602 0d12 70E0      		ldi r23,hi8(.LC33)
 2603 0d14 83E4      		ldi r24,lo8(67)
 2604 0d16 0E94 0000 		call sendUartToInterface
 896:/Users/marklee/Documents/xcode/avr/DTU/Robot_test/Robot_test/mainStateMachine.c ****                 stateMessage = 1;
 2606               	.LM366:
 2607 0d1a 81E0      		ldi r24,lo8(1)
 2608 0d1c 90E0      		ldi r25,0
 2609 0d1e 9093 0000 		sts stateMessage+1,r25
 2610 0d22 8093 0000 		sts stateMessage,r24
 2611               	.L237:
 899:/Users/marklee/Documents/xcode/avr/DTU/Robot_test/Robot_test/mainStateMachine.c ****             followLine();
 2613               	.LM367:
 2614 0d26 0E94 0000 		call followLine
 901:/Users/marklee/Documents/xcode/avr/DTU/Robot_test/Robot_test/mainStateMachine.c ****             if (newLine == 15 || newLine == 7 || newLine == 14)
 2616               	.LM368:
 2617 0d2a 8091 0000 		lds r24,newLine
 2618 0d2e 9091 0000 		lds r25,newLine+1
 2619 0d32 0F97      		sbiw r24,15
 2620 0d34 01F0      		breq .L238
 901:/Users/marklee/Documents/xcode/avr/DTU/Robot_test/Robot_test/mainStateMachine.c ****             if (newLine == 15 || newLine == 7 || newLine == 14)
 2622               	.LM369:
 2623 0d36 8091 0000 		lds r24,newLine
 2624 0d3a 9091 0000 		lds r25,newLine+1
 2625 0d3e 0797      		sbiw r24,7
 2626 0d40 01F0      		breq .L238
 2627 0d42 8091 0000 		lds r24,newLine
 2628 0d46 9091 0000 		lds r25,newLine+1
 2629 0d4a 0E97      		sbiw r24,14
 2630 0d4c 01F4      		brne .L239
 2631               	.L238:
 903:/Users/marklee/Documents/xcode/avr/DTU/Robot_test/Robot_test/mainStateMachine.c ****                 stopTimeMs(1000);
 2633               	.LM370:
 2634 0d4e 88EE      		ldi r24,lo8(-24)
 2635 0d50 93E0      		ldi r25,lo8(3)
 2636 0d52 0E94 0000 		call stopTimeMs
 904:/Users/marklee/Documents/xcode/avr/DTU/Robot_test/Robot_test/mainStateMachine.c ****                 octagon();
 2638               	.LM371:
 2639 0d56 0E94 0000 		call octagon
 2640               	.L239:
 908:/Users/marklee/Documents/xcode/avr/DTU/Robot_test/Robot_test/mainStateMachine.c ****             if (fullCircleDone)
 2642               	.LM372:
 2643 0d5a 8091 0000 		lds r24,fullCircleDone
 2644 0d5e 9091 0000 		lds r25,fullCircleDone+1
 2645 0d62 892B      		or r24,r25
 2646 0d64 01F4      		brne .+2
 2647 0d66 00C0      		rjmp .L215
 910:/Users/marklee/Documents/xcode/avr/DTU/Robot_test/Robot_test/mainStateMachine.c ****                 stateMessage = 0;
 2649               	.LM373:
 2650 0d68 1092 0000 		sts stateMessage+1,__zero_reg__
 2651 0d6c 1092 0000 		sts stateMessage,__zero_reg__
 911:/Users/marklee/Documents/xcode/avr/DTU/Robot_test/Robot_test/mainStateMachine.c ****                 state = HIGH_SPEED_CURVE;
 2653               	.LM374:
 2654 0d70 84E0      		ldi r24,lo8(4)
 2655 0d72 00C0      		rjmp .L277
 2656               	.L222:
 919:/Users/marklee/Documents/xcode/avr/DTU/Robot_test/Robot_test/mainStateMachine.c ****             if (stateMessage == 0)
 2658               	.LM375:
 2659 0d74 892B      		or r24,r25
 2660 0d76 01F4      		brne .L240
 921:/Users/marklee/Documents/xcode/avr/DTU/Robot_test/Robot_test/mainStateMachine.c ****                 sendUartToInterface('C', "S5");
 2662               	.LM376:
 2663 0d78 60E0      		ldi r22,lo8(.LC34)
 2664 0d7a 70E0      		ldi r23,hi8(.LC34)
 2665 0d7c 83E4      		ldi r24,lo8(67)
 2666 0d7e 0E94 0000 		call sendUartToInterface
 922:/Users/marklee/Documents/xcode/avr/DTU/Robot_test/Robot_test/mainStateMachine.c ****                 stateMessage = 1;
 2668               	.LM377:
 2669 0d82 81E0      		ldi r24,lo8(1)
 2670 0d84 90E0      		ldi r25,0
 2671 0d86 9093 0000 		sts stateMessage+1,r25
 2672 0d8a 8093 0000 		sts stateMessage,r24
 2673               	.L240:
 925:/Users/marklee/Documents/xcode/avr/DTU/Robot_test/Robot_test/mainStateMachine.c ****             followLine();
 2675               	.LM378:
 2676 0d8e 0E94 0000 		call followLine
 927:/Users/marklee/Documents/xcode/avr/DTU/Robot_test/Robot_test/mainStateMachine.c ****             if (newLine == 3 || newLine == 7)
 2678               	.LM379:
 2679 0d92 8091 0000 		lds r24,newLine
 2680 0d96 9091 0000 		lds r25,newLine+1
 2681 0d9a 0397      		sbiw r24,3
 2682 0d9c 01F0      		breq .L241
 927:/Users/marklee/Documents/xcode/avr/DTU/Robot_test/Robot_test/mainStateMachine.c ****             if (newLine == 3 || newLine == 7)
 2684               	.LM380:
 2685 0d9e 8091 0000 		lds r24,newLine
 2686 0da2 9091 0000 		lds r25,newLine+1
 2687 0da6 0797      		sbiw r24,7
 2688 0da8 01F4      		brne .L242
 2689               	.L241:
 930:/Users/marklee/Documents/xcode/avr/DTU/Robot_test/Robot_test/mainStateMachine.c ****                 if (!highSpeedMark)
 2691               	.LM381:
 2692 0daa 8091 0000 		lds r24,highSpeedMark
 2693 0dae 9091 0000 		lds r25,highSpeedMark+1
 2694 0db2 892B      		or r24,r25
 2695 0db4 01F0      		breq .+2
 2696 0db6 00C0      		rjmp .L215
 932:/Users/marklee/Documents/xcode/avr/DTU/Robot_test/Robot_test/mainStateMachine.c ****                     sendUartToInterface('C', "S5.1");
 2698               	.LM382:
 2699 0db8 60E0      		ldi r22,lo8(.LC35)
 2700 0dba 70E0      		ldi r23,hi8(.LC35)
 2701 0dbc 83E4      		ldi r24,lo8(67)
 2702 0dbe 0E94 0000 		call sendUartToInterface
 933:/Users/marklee/Documents/xcode/avr/DTU/Robot_test/Robot_test/mainStateMachine.c ****                     driveDistanceEncoder(435);
 2704               	.LM383:
 2705 0dc2 83EB      		ldi r24,lo8(-77)
 2706 0dc4 91E0      		ldi r25,lo8(1)
 2707 0dc6 0E94 0000 		call driveDistanceEncoder
 934:/Users/marklee/Documents/xcode/avr/DTU/Robot_test/Robot_test/mainStateMachine.c ****                     speed = 180;
 2709               	.LM384:
 2710 0dca 84EB      		ldi r24,lo8(-76)
 2711 0dcc 90E0      		ldi r25,0
 2712 0dce 9093 0000 		sts speed+1,r25
 2713 0dd2 8093 0000 		sts speed,r24
 935:/Users/marklee/Documents/xcode/avr/DTU/Robot_test/Robot_test/mainStateMachine.c ****                     highSpeedMark = 1;
 2715               	.LM385:
 2716 0dd6 81E0      		ldi r24,lo8(1)
 2717 0dd8 90E0      		ldi r25,0
 2718 0dda 9093 0000 		sts highSpeedMark+1,r25
 2719 0dde 8093 0000 		sts highSpeedMark,r24
 2720 0de2 0895      		ret
 2721               	.L242:
 939:/Users/marklee/Documents/xcode/avr/DTU/Robot_test/Robot_test/mainStateMachine.c ****             else if (newLine == 15 || newLine == 7 || newLine == 14)
 2723               	.LM386:
 2724 0de4 8091 0000 		lds r24,newLine
 2725 0de8 9091 0000 		lds r25,newLine+1
 2726 0dec 0F97      		sbiw r24,15
 2727 0dee 01F0      		breq .L243
 939:/Users/marklee/Documents/xcode/avr/DTU/Robot_test/Robot_test/mainStateMachine.c ****             else if (newLine == 15 || newLine == 7 || newLine == 14)
 2729               	.LM387:
 2730 0df0 8091 0000 		lds r24,newLine
 2731 0df4 9091 0000 		lds r25,newLine+1
 2732 0df8 0797      		sbiw r24,7
 2733 0dfa 01F0      		breq .L243
 2734 0dfc 8091 0000 		lds r24,newLine
 2735 0e00 9091 0000 		lds r25,newLine+1
 2736 0e04 0E97      		sbiw r24,14
 2737 0e06 01F0      		breq .+2
 2738 0e08 00C0      		rjmp .L215
 2739               	.L243:
 941:/Users/marklee/Documents/xcode/avr/DTU/Robot_test/Robot_test/mainStateMachine.c ****                 stateMessage = 0;
 2741               	.LM388:
 2742 0e0a 1092 0000 		sts stateMessage+1,__zero_reg__
 2743 0e0e 1092 0000 		sts stateMessage,__zero_reg__
 942:/Users/marklee/Documents/xcode/avr/DTU/Robot_test/Robot_test/mainStateMachine.c ****                 state = END_OF_LINE;
 2745               	.LM389:
 2746 0e12 85E0      		ldi r24,lo8(5)
 2747 0e14 00C0      		rjmp .L277
 2748               	.L223:
 950:/Users/marklee/Documents/xcode/avr/DTU/Robot_test/Robot_test/mainStateMachine.c ****             if (stateMessage == 0)
 2750               	.LM390:
 2751 0e16 892B      		or r24,r25
 2752 0e18 01F4      		brne .L244
 952:/Users/marklee/Documents/xcode/avr/DTU/Robot_test/Robot_test/mainStateMachine.c ****                 sendUartToInterface('C', "S6");
 2754               	.LM391:
 2755 0e1a 60E0      		ldi r22,lo8(.LC36)
 2756 0e1c 70E0      		ldi r23,hi8(.LC36)
 2757 0e1e 83E4      		ldi r24,lo8(67)
 2758 0e20 0E94 0000 		call sendUartToInterface
 953:/Users/marklee/Documents/xcode/avr/DTU/Robot_test/Robot_test/mainStateMachine.c ****                 stateMessage = 1;
 2760               	.LM392:
 2761 0e24 81E0      		ldi r24,lo8(1)
 2762 0e26 90E0      		ldi r25,0
 2763 0e28 9093 0000 		sts stateMessage+1,r25
 2764 0e2c 8093 0000 		sts stateMessage,r24
 2765               	.L244:
 958:/Users/marklee/Documents/xcode/avr/DTU/Robot_test/Robot_test/mainStateMachine.c ****             DDRD |= (1<<PD4);
 2767               	.LM393:
 2768 0e30 549A      		sbi 0xa,4
 959:/Users/marklee/Documents/xcode/avr/DTU/Robot_test/Robot_test/mainStateMachine.c ****             PORTD &= ~(1<<PD4);
 2770               	.LM394:
 2771 0e32 5C98      		cbi 0xb,4
 2772               	.LBB134:
 2773               	.LBB135:
 2775               	.Ltext9:
   1:/usr/local/CrossPack-AVR-20131216/avr/include/util/delay.h **** /* Copyright (c) 2002, Marek Michalkiewicz
   2:/usr/local/CrossPack-AVR-20131216/avr/include/util/delay.h ****    Copyright (c) 2004,2005,2007 Joerg Wunsch
   3:/usr/local/CrossPack-AVR-20131216/avr/include/util/delay.h ****    Copyright (c) 2007  Florin-Viorel Petrov
   4:/usr/local/CrossPack-AVR-20131216/avr/include/util/delay.h ****    All rights reserved.
   5:/usr/local/CrossPack-AVR-20131216/avr/include/util/delay.h **** 
   6:/usr/local/CrossPack-AVR-20131216/avr/include/util/delay.h ****    Redistribution and use in source and binary forms, with or without
   7:/usr/local/CrossPack-AVR-20131216/avr/include/util/delay.h ****    modification, are permitted provided that the following conditions are met:
   8:/usr/local/CrossPack-AVR-20131216/avr/include/util/delay.h **** 
   9:/usr/local/CrossPack-AVR-20131216/avr/include/util/delay.h ****    * Redistributions of source code must retain the above copyright
  10:/usr/local/CrossPack-AVR-20131216/avr/include/util/delay.h ****      notice, this list of conditions and the following disclaimer.
  11:/usr/local/CrossPack-AVR-20131216/avr/include/util/delay.h **** 
  12:/usr/local/CrossPack-AVR-20131216/avr/include/util/delay.h ****    * Redistributions in binary form must reproduce the above copyright
  13:/usr/local/CrossPack-AVR-20131216/avr/include/util/delay.h ****      notice, this list of conditions and the following disclaimer in
  14:/usr/local/CrossPack-AVR-20131216/avr/include/util/delay.h ****      the documentation and/or other materials provided with the
  15:/usr/local/CrossPack-AVR-20131216/avr/include/util/delay.h ****      distribution.
  16:/usr/local/CrossPack-AVR-20131216/avr/include/util/delay.h **** 
  17:/usr/local/CrossPack-AVR-20131216/avr/include/util/delay.h ****    * Neither the name of the copyright holders nor the names of
  18:/usr/local/CrossPack-AVR-20131216/avr/include/util/delay.h ****      contributors may be used to endorse or promote products derived
  19:/usr/local/CrossPack-AVR-20131216/avr/include/util/delay.h ****      from this software without specific prior written permission.
  20:/usr/local/CrossPack-AVR-20131216/avr/include/util/delay.h **** 
  21:/usr/local/CrossPack-AVR-20131216/avr/include/util/delay.h ****   THIS SOFTWARE IS PROVIDED BY THE COPYRIGHT HOLDERS AND CONTRIBUTORS "AS IS"
  22:/usr/local/CrossPack-AVR-20131216/avr/include/util/delay.h ****   AND ANY EXPRESS OR IMPLIED WARRANTIES, INCLUDING, BUT NOT LIMITED TO, THE
  23:/usr/local/CrossPack-AVR-20131216/avr/include/util/delay.h ****   IMPLIED WARRANTIES OF MERCHANTABILITY AND FITNESS FOR A PARTICULAR PURPOSE
  24:/usr/local/CrossPack-AVR-20131216/avr/include/util/delay.h ****   ARE DISCLAIMED. IN NO EVENT SHALL THE COPYRIGHT OWNER OR CONTRIBUTORS BE
  25:/usr/local/CrossPack-AVR-20131216/avr/include/util/delay.h ****   LIABLE FOR ANY DIRECT, INDIRECT, INCIDENTAL, SPECIAL, EXEMPLARY, OR
  26:/usr/local/CrossPack-AVR-20131216/avr/include/util/delay.h ****   CONSEQUENTIAL DAMAGES (INCLUDING, BUT NOT LIMITED TO, PROCUREMENT OF
  27:/usr/local/CrossPack-AVR-20131216/avr/include/util/delay.h ****   SUBSTITUTE GOODS OR SERVICES; LOSS OF USE, DATA, OR PROFITS; OR BUSINESS
  28:/usr/local/CrossPack-AVR-20131216/avr/include/util/delay.h ****   INTERRUPTION) HOWEVER CAUSED AND ON ANY THEORY OF LIABILITY, WHETHER IN
  29:/usr/local/CrossPack-AVR-20131216/avr/include/util/delay.h ****   CONTRACT, STRICT LIABILITY, OR TORT (INCLUDING NEGLIGENCE OR OTHERWISE)
  30:/usr/local/CrossPack-AVR-20131216/avr/include/util/delay.h ****   ARISING IN ANY WAY OUT OF THE USE OF THIS SOFTWARE, EVEN IF ADVISED OF THE
  31:/usr/local/CrossPack-AVR-20131216/avr/include/util/delay.h ****   POSSIBILITY OF SUCH DAMAGE. */
  32:/usr/local/CrossPack-AVR-20131216/avr/include/util/delay.h **** 
  33:/usr/local/CrossPack-AVR-20131216/avr/include/util/delay.h **** /* $Id$ */
  34:/usr/local/CrossPack-AVR-20131216/avr/include/util/delay.h **** 
  35:/usr/local/CrossPack-AVR-20131216/avr/include/util/delay.h **** #ifndef _UTIL_DELAY_H_
  36:/usr/local/CrossPack-AVR-20131216/avr/include/util/delay.h **** #define _UTIL_DELAY_H_ 1
  37:/usr/local/CrossPack-AVR-20131216/avr/include/util/delay.h **** 
  38:/usr/local/CrossPack-AVR-20131216/avr/include/util/delay.h **** #ifndef __HAS_DELAY_CYCLES
  39:/usr/local/CrossPack-AVR-20131216/avr/include/util/delay.h **** #define __HAS_DELAY_CYCLES 1
  40:/usr/local/CrossPack-AVR-20131216/avr/include/util/delay.h **** #endif
  41:/usr/local/CrossPack-AVR-20131216/avr/include/util/delay.h **** 
  42:/usr/local/CrossPack-AVR-20131216/avr/include/util/delay.h **** #include <inttypes.h>
  43:/usr/local/CrossPack-AVR-20131216/avr/include/util/delay.h **** #include <util/delay_basic.h>
  44:/usr/local/CrossPack-AVR-20131216/avr/include/util/delay.h **** #include <math.h>
  45:/usr/local/CrossPack-AVR-20131216/avr/include/util/delay.h **** 
  46:/usr/local/CrossPack-AVR-20131216/avr/include/util/delay.h **** /** \file */
  47:/usr/local/CrossPack-AVR-20131216/avr/include/util/delay.h **** /** \defgroup util_delay <util/delay.h>: Convenience functions for busy-wait delay loops
  48:/usr/local/CrossPack-AVR-20131216/avr/include/util/delay.h ****     \code
  49:/usr/local/CrossPack-AVR-20131216/avr/include/util/delay.h ****     #define F_CPU 1000000UL  // 1 MHz
  50:/usr/local/CrossPack-AVR-20131216/avr/include/util/delay.h ****     //#define F_CPU 14.7456E6
  51:/usr/local/CrossPack-AVR-20131216/avr/include/util/delay.h ****     #include <util/delay.h>
  52:/usr/local/CrossPack-AVR-20131216/avr/include/util/delay.h ****     \endcode
  53:/usr/local/CrossPack-AVR-20131216/avr/include/util/delay.h **** 
  54:/usr/local/CrossPack-AVR-20131216/avr/include/util/delay.h ****     \note As an alternative method, it is possible to pass the
  55:/usr/local/CrossPack-AVR-20131216/avr/include/util/delay.h ****     F_CPU macro down to the compiler from the Makefile.
  56:/usr/local/CrossPack-AVR-20131216/avr/include/util/delay.h ****     Obviously, in that case, no \c \#define statement should be
  57:/usr/local/CrossPack-AVR-20131216/avr/include/util/delay.h ****     used.
  58:/usr/local/CrossPack-AVR-20131216/avr/include/util/delay.h **** 
  59:/usr/local/CrossPack-AVR-20131216/avr/include/util/delay.h ****     The functions in this header file are wrappers around the basic
  60:/usr/local/CrossPack-AVR-20131216/avr/include/util/delay.h ****     busy-wait functions from <util/delay_basic.h>.  They are meant as
  61:/usr/local/CrossPack-AVR-20131216/avr/include/util/delay.h ****     convenience functions where actual time values can be specified
  62:/usr/local/CrossPack-AVR-20131216/avr/include/util/delay.h ****     rather than a number of cycles to wait for.  The idea behind is
  63:/usr/local/CrossPack-AVR-20131216/avr/include/util/delay.h ****     that compile-time constant expressions will be eliminated by
  64:/usr/local/CrossPack-AVR-20131216/avr/include/util/delay.h ****     compiler optimization so floating-point expressions can be used
  65:/usr/local/CrossPack-AVR-20131216/avr/include/util/delay.h ****     to calculate the number of delay cycles needed based on the CPU
  66:/usr/local/CrossPack-AVR-20131216/avr/include/util/delay.h ****     frequency passed by the macro F_CPU.
  67:/usr/local/CrossPack-AVR-20131216/avr/include/util/delay.h **** 
  68:/usr/local/CrossPack-AVR-20131216/avr/include/util/delay.h ****     \note In order for these functions to work as intended, compiler
  69:/usr/local/CrossPack-AVR-20131216/avr/include/util/delay.h ****     optimizations <em>must</em> be enabled, and the delay time
  70:/usr/local/CrossPack-AVR-20131216/avr/include/util/delay.h ****     <em>must</em> be an expression that is a known constant at
  71:/usr/local/CrossPack-AVR-20131216/avr/include/util/delay.h ****     compile-time.  If these requirements are not met, the resulting
  72:/usr/local/CrossPack-AVR-20131216/avr/include/util/delay.h ****     delay will be much longer (and basically unpredictable), and
  73:/usr/local/CrossPack-AVR-20131216/avr/include/util/delay.h ****     applications that otherwise do not use floating-point calculations
  74:/usr/local/CrossPack-AVR-20131216/avr/include/util/delay.h ****     will experience severe code bloat by the floating-point library
  75:/usr/local/CrossPack-AVR-20131216/avr/include/util/delay.h ****     routines linked into the application.
  76:/usr/local/CrossPack-AVR-20131216/avr/include/util/delay.h **** 
  77:/usr/local/CrossPack-AVR-20131216/avr/include/util/delay.h ****     The functions available allow the specification of microsecond, and
  78:/usr/local/CrossPack-AVR-20131216/avr/include/util/delay.h ****     millisecond delays directly, using the application-supplied macro
  79:/usr/local/CrossPack-AVR-20131216/avr/include/util/delay.h ****     F_CPU as the CPU clock frequency (in Hertz).
  80:/usr/local/CrossPack-AVR-20131216/avr/include/util/delay.h **** 
  81:/usr/local/CrossPack-AVR-20131216/avr/include/util/delay.h **** */
  82:/usr/local/CrossPack-AVR-20131216/avr/include/util/delay.h **** 
  83:/usr/local/CrossPack-AVR-20131216/avr/include/util/delay.h **** #if !defined(__DOXYGEN__)
  84:/usr/local/CrossPack-AVR-20131216/avr/include/util/delay.h **** static inline void _delay_us(double __us) __attribute__((always_inline));
  85:/usr/local/CrossPack-AVR-20131216/avr/include/util/delay.h **** static inline void _delay_ms(double __ms) __attribute__((always_inline));
  86:/usr/local/CrossPack-AVR-20131216/avr/include/util/delay.h **** #endif
  87:/usr/local/CrossPack-AVR-20131216/avr/include/util/delay.h **** 
  88:/usr/local/CrossPack-AVR-20131216/avr/include/util/delay.h **** #ifndef F_CPU
  89:/usr/local/CrossPack-AVR-20131216/avr/include/util/delay.h **** /* prevent compiler error by supplying a default */
  90:/usr/local/CrossPack-AVR-20131216/avr/include/util/delay.h **** # warning "F_CPU not defined for <util/delay.h>"
  91:/usr/local/CrossPack-AVR-20131216/avr/include/util/delay.h **** # define F_CPU 1000000UL
  92:/usr/local/CrossPack-AVR-20131216/avr/include/util/delay.h **** #endif
  93:/usr/local/CrossPack-AVR-20131216/avr/include/util/delay.h **** 
  94:/usr/local/CrossPack-AVR-20131216/avr/include/util/delay.h **** #ifndef __OPTIMIZE__
  95:/usr/local/CrossPack-AVR-20131216/avr/include/util/delay.h **** # warning "Compiler optimizations disabled; functions from <util/delay.h> won't work as designed"
  96:/usr/local/CrossPack-AVR-20131216/avr/include/util/delay.h **** #endif
  97:/usr/local/CrossPack-AVR-20131216/avr/include/util/delay.h **** 
  98:/usr/local/CrossPack-AVR-20131216/avr/include/util/delay.h **** #if __HAS_DELAY_CYCLES && defined(__OPTIMIZE__) && \
  99:/usr/local/CrossPack-AVR-20131216/avr/include/util/delay.h ****   !defined(__DELAY_BACKWARD_COMPATIBLE__) &&	   \
 100:/usr/local/CrossPack-AVR-20131216/avr/include/util/delay.h ****   __STDC_HOSTED__
 101:/usr/local/CrossPack-AVR-20131216/avr/include/util/delay.h **** #  include <math.h>
 102:/usr/local/CrossPack-AVR-20131216/avr/include/util/delay.h **** #endif
 103:/usr/local/CrossPack-AVR-20131216/avr/include/util/delay.h **** 
 104:/usr/local/CrossPack-AVR-20131216/avr/include/util/delay.h **** /**
 105:/usr/local/CrossPack-AVR-20131216/avr/include/util/delay.h ****    \ingroup util_delay
 106:/usr/local/CrossPack-AVR-20131216/avr/include/util/delay.h **** 
 107:/usr/local/CrossPack-AVR-20131216/avr/include/util/delay.h ****    Perform a delay of \c __ms milliseconds, using _delay_loop_2().
 108:/usr/local/CrossPack-AVR-20131216/avr/include/util/delay.h **** 
 109:/usr/local/CrossPack-AVR-20131216/avr/include/util/delay.h ****    The macro F_CPU is supposed to be defined to a
 110:/usr/local/CrossPack-AVR-20131216/avr/include/util/delay.h ****    constant defining the CPU clock frequency (in Hertz).
 111:/usr/local/CrossPack-AVR-20131216/avr/include/util/delay.h **** 
 112:/usr/local/CrossPack-AVR-20131216/avr/include/util/delay.h ****    The maximal possible delay is 262.14 ms / F_CPU in MHz.
 113:/usr/local/CrossPack-AVR-20131216/avr/include/util/delay.h **** 
 114:/usr/local/CrossPack-AVR-20131216/avr/include/util/delay.h ****    When the user request delay which exceed the maximum possible one,
 115:/usr/local/CrossPack-AVR-20131216/avr/include/util/delay.h ****    _delay_ms() provides a decreased resolution functionality. In this
 116:/usr/local/CrossPack-AVR-20131216/avr/include/util/delay.h ****    mode _delay_ms() will work with a resolution of 1/10 ms, providing
 117:/usr/local/CrossPack-AVR-20131216/avr/include/util/delay.h ****    delays up to 6.5535 seconds (independent from CPU frequency).  The
 118:/usr/local/CrossPack-AVR-20131216/avr/include/util/delay.h ****    user will not be informed about decreased resolution.
 119:/usr/local/CrossPack-AVR-20131216/avr/include/util/delay.h **** 
 120:/usr/local/CrossPack-AVR-20131216/avr/include/util/delay.h ****    If the avr-gcc toolchain has __builtin_avr_delay_cycles(unsigned long)
 121:/usr/local/CrossPack-AVR-20131216/avr/include/util/delay.h ****    support, maximal possible delay is 4294967.295 ms/ F_CPU in MHz. For
 122:/usr/local/CrossPack-AVR-20131216/avr/include/util/delay.h ****    values greater than the maximal possible delay, overflows results in
 123:/usr/local/CrossPack-AVR-20131216/avr/include/util/delay.h ****    no delay i.e., 0ms.
 124:/usr/local/CrossPack-AVR-20131216/avr/include/util/delay.h **** 
 125:/usr/local/CrossPack-AVR-20131216/avr/include/util/delay.h ****    Conversion of __us into clock cycles may not always result in integer.
 126:/usr/local/CrossPack-AVR-20131216/avr/include/util/delay.h ****    By default, the clock cycles rounded up to next integer. This ensures that
 127:/usr/local/CrossPack-AVR-20131216/avr/include/util/delay.h ****    the user gets atleast __us microseconds of delay.
 128:/usr/local/CrossPack-AVR-20131216/avr/include/util/delay.h **** 
 129:/usr/local/CrossPack-AVR-20131216/avr/include/util/delay.h ****    Alternatively, user can define __DELAY_ROUND_DOWN__ and __DELAY_ROUND_CLOSEST__
 130:/usr/local/CrossPack-AVR-20131216/avr/include/util/delay.h ****    to round down and round to closest integer.
 131:/usr/local/CrossPack-AVR-20131216/avr/include/util/delay.h **** 
 132:/usr/local/CrossPack-AVR-20131216/avr/include/util/delay.h ****    Note: The new implementation of _delay_ms(double __ms) with 
 133:/usr/local/CrossPack-AVR-20131216/avr/include/util/delay.h ****     __builtin_avr_delay_cycles(unsigned long) support is not backward compatible. 
 134:/usr/local/CrossPack-AVR-20131216/avr/include/util/delay.h ****    User can define __DELAY_BACKWARD_COMPATIBLE__ to get a backward compatible delay.
 135:/usr/local/CrossPack-AVR-20131216/avr/include/util/delay.h ****    Also, the backward compatible
 136:/usr/local/CrossPack-AVR-20131216/avr/include/util/delay.h ****    algorithm will be chosen if the code is compiled in a <em>freestanding
 137:/usr/local/CrossPack-AVR-20131216/avr/include/util/delay.h ****    environment</em> (GCC option \c -ffreestanding), as the math functions
 138:/usr/local/CrossPack-AVR-20131216/avr/include/util/delay.h ****    required for rounding are not available to the compiler then.
 139:/usr/local/CrossPack-AVR-20131216/avr/include/util/delay.h **** 
 140:/usr/local/CrossPack-AVR-20131216/avr/include/util/delay.h ****  */
 141:/usr/local/CrossPack-AVR-20131216/avr/include/util/delay.h **** void
 142:/usr/local/CrossPack-AVR-20131216/avr/include/util/delay.h **** _delay_ms(double __ms)
 143:/usr/local/CrossPack-AVR-20131216/avr/include/util/delay.h **** {
 144:/usr/local/CrossPack-AVR-20131216/avr/include/util/delay.h **** 	double __tmp ; 
 145:/usr/local/CrossPack-AVR-20131216/avr/include/util/delay.h **** #if __HAS_DELAY_CYCLES && defined(__OPTIMIZE__) && \
 146:/usr/local/CrossPack-AVR-20131216/avr/include/util/delay.h ****   !defined(__DELAY_BACKWARD_COMPATIBLE__) &&	   \
 147:/usr/local/CrossPack-AVR-20131216/avr/include/util/delay.h ****   __STDC_HOSTED__
 148:/usr/local/CrossPack-AVR-20131216/avr/include/util/delay.h **** 	uint32_t __ticks_dc;
 149:/usr/local/CrossPack-AVR-20131216/avr/include/util/delay.h **** 	extern void __builtin_avr_delay_cycles(unsigned long);
 150:/usr/local/CrossPack-AVR-20131216/avr/include/util/delay.h **** 	__tmp = ((F_CPU) / 1e3) * __ms;
 151:/usr/local/CrossPack-AVR-20131216/avr/include/util/delay.h **** 
 152:/usr/local/CrossPack-AVR-20131216/avr/include/util/delay.h **** 	#if defined(__DELAY_ROUND_DOWN__)
 153:/usr/local/CrossPack-AVR-20131216/avr/include/util/delay.h **** 		__ticks_dc = (uint32_t)fabs(__tmp);
 154:/usr/local/CrossPack-AVR-20131216/avr/include/util/delay.h **** 
 155:/usr/local/CrossPack-AVR-20131216/avr/include/util/delay.h **** 	#elif defined(__DELAY_ROUND_CLOSEST__)
 156:/usr/local/CrossPack-AVR-20131216/avr/include/util/delay.h **** 		__ticks_dc = (uint32_t)(fabs(__tmp)+0.5);
 157:/usr/local/CrossPack-AVR-20131216/avr/include/util/delay.h **** 
 158:/usr/local/CrossPack-AVR-20131216/avr/include/util/delay.h **** 	#else
 159:/usr/local/CrossPack-AVR-20131216/avr/include/util/delay.h **** 		//round up by default
 160:/usr/local/CrossPack-AVR-20131216/avr/include/util/delay.h **** 		__ticks_dc = (uint32_t)(ceil(fabs(__tmp)));
 161:/usr/local/CrossPack-AVR-20131216/avr/include/util/delay.h **** 	#endif
 162:/usr/local/CrossPack-AVR-20131216/avr/include/util/delay.h **** 
 163:/usr/local/CrossPack-AVR-20131216/avr/include/util/delay.h **** 	__builtin_avr_delay_cycles(__ticks_dc);
 164:/usr/local/CrossPack-AVR-20131216/avr/include/util/delay.h **** 
 165:/usr/local/CrossPack-AVR-20131216/avr/include/util/delay.h **** #else
 166:/usr/local/CrossPack-AVR-20131216/avr/include/util/delay.h **** 	uint16_t __ticks;
 167:/usr/local/CrossPack-AVR-20131216/avr/include/util/delay.h **** 	__tmp = ((F_CPU) / 4e3) * __ms;
 168:/usr/local/CrossPack-AVR-20131216/avr/include/util/delay.h **** 	if (__tmp < 1.0)
 169:/usr/local/CrossPack-AVR-20131216/avr/include/util/delay.h **** 		__ticks = 1;
 170:/usr/local/CrossPack-AVR-20131216/avr/include/util/delay.h **** 	else if (__tmp > 65535)
 171:/usr/local/CrossPack-AVR-20131216/avr/include/util/delay.h **** 	{
 172:/usr/local/CrossPack-AVR-20131216/avr/include/util/delay.h **** 		//	__ticks = requested delay in 1/10 ms
 173:/usr/local/CrossPack-AVR-20131216/avr/include/util/delay.h **** 		__ticks = (uint16_t) (__ms * 10.0);
 174:/usr/local/CrossPack-AVR-20131216/avr/include/util/delay.h **** 		while(__ticks)
 175:/usr/local/CrossPack-AVR-20131216/avr/include/util/delay.h **** 		{
 176:/usr/local/CrossPack-AVR-20131216/avr/include/util/delay.h **** 			// wait 1/10 ms
 177:/usr/local/CrossPack-AVR-20131216/avr/include/util/delay.h **** 			_delay_loop_2(((F_CPU) / 4e3) / 10);
 178:/usr/local/CrossPack-AVR-20131216/avr/include/util/delay.h **** 			__ticks --;
 179:/usr/local/CrossPack-AVR-20131216/avr/include/util/delay.h **** 		}
 180:/usr/local/CrossPack-AVR-20131216/avr/include/util/delay.h **** 		return;
 181:/usr/local/CrossPack-AVR-20131216/avr/include/util/delay.h **** 	}
 182:/usr/local/CrossPack-AVR-20131216/avr/include/util/delay.h **** 	else
 183:/usr/local/CrossPack-AVR-20131216/avr/include/util/delay.h **** 		__ticks = (uint16_t)__tmp;
 184:/usr/local/CrossPack-AVR-20131216/avr/include/util/delay.h **** 	_delay_loop_2(__ticks);
 185:/usr/local/CrossPack-AVR-20131216/avr/include/util/delay.h **** #endif
 186:/usr/local/CrossPack-AVR-20131216/avr/include/util/delay.h **** }
 187:/usr/local/CrossPack-AVR-20131216/avr/include/util/delay.h **** 
 188:/usr/local/CrossPack-AVR-20131216/avr/include/util/delay.h **** /**
 189:/usr/local/CrossPack-AVR-20131216/avr/include/util/delay.h ****    \ingroup util_delay
 190:/usr/local/CrossPack-AVR-20131216/avr/include/util/delay.h **** 
 191:/usr/local/CrossPack-AVR-20131216/avr/include/util/delay.h ****    Perform a delay of \c __us microseconds, using _delay_loop_1().
 192:/usr/local/CrossPack-AVR-20131216/avr/include/util/delay.h **** 
 193:/usr/local/CrossPack-AVR-20131216/avr/include/util/delay.h ****    The macro F_CPU is supposed to be defined to a
 194:/usr/local/CrossPack-AVR-20131216/avr/include/util/delay.h ****    constant defining the CPU clock frequency (in Hertz).
 195:/usr/local/CrossPack-AVR-20131216/avr/include/util/delay.h **** 
 196:/usr/local/CrossPack-AVR-20131216/avr/include/util/delay.h ****    The maximal possible delay is 768 us / F_CPU in MHz.
 197:/usr/local/CrossPack-AVR-20131216/avr/include/util/delay.h **** 
 198:/usr/local/CrossPack-AVR-20131216/avr/include/util/delay.h ****    If the user requests a delay greater than the maximal possible one,
 199:/usr/local/CrossPack-AVR-20131216/avr/include/util/delay.h ****    _delay_us() will automatically call _delay_ms() instead.  The user
 200:/usr/local/CrossPack-AVR-20131216/avr/include/util/delay.h ****    will not be informed about this case.
 201:/usr/local/CrossPack-AVR-20131216/avr/include/util/delay.h **** 
 202:/usr/local/CrossPack-AVR-20131216/avr/include/util/delay.h ****    If the avr-gcc toolchain has __builtin_avr_delay_cycles(unsigned long)
 203:/usr/local/CrossPack-AVR-20131216/avr/include/util/delay.h ****    support, maximal possible delay is 4294967.295 us/ F_CPU in MHz. For
 204:/usr/local/CrossPack-AVR-20131216/avr/include/util/delay.h ****    values greater than the maximal possible delay, overflow results in
 205:/usr/local/CrossPack-AVR-20131216/avr/include/util/delay.h ****    no delay i.e., 0us.
 206:/usr/local/CrossPack-AVR-20131216/avr/include/util/delay.h ****   
 207:/usr/local/CrossPack-AVR-20131216/avr/include/util/delay.h ****    Conversion of __us into clock cycles may not always result in integer.
 208:/usr/local/CrossPack-AVR-20131216/avr/include/util/delay.h ****    By default, the clock cycles rounded up to next integer. This ensures that
 209:/usr/local/CrossPack-AVR-20131216/avr/include/util/delay.h ****    the user gets atleast __us microseconds of delay.
 210:/usr/local/CrossPack-AVR-20131216/avr/include/util/delay.h **** 
 211:/usr/local/CrossPack-AVR-20131216/avr/include/util/delay.h ****    Alternatively, user can define __DELAY_ROUND_DOWN__ and __DELAY_ROUND_CLOSEST__
 212:/usr/local/CrossPack-AVR-20131216/avr/include/util/delay.h ****    to round down and round to closest integer.
 213:/usr/local/CrossPack-AVR-20131216/avr/include/util/delay.h ****  
 214:/usr/local/CrossPack-AVR-20131216/avr/include/util/delay.h ****    Note: The new implementation of _delay_us(double __us) with 
 215:/usr/local/CrossPack-AVR-20131216/avr/include/util/delay.h ****     __builtin_avr_delay_cycles(unsigned long) support is not backward compatible.
 216:/usr/local/CrossPack-AVR-20131216/avr/include/util/delay.h ****    User can define __DELAY_BACKWARD_COMPATIBLE__ to get a backward compatible delay.
 217:/usr/local/CrossPack-AVR-20131216/avr/include/util/delay.h ****    Also, the backward compatible
 218:/usr/local/CrossPack-AVR-20131216/avr/include/util/delay.h ****    algorithm will be chosen if the code is compiled in a <em>freestanding
 219:/usr/local/CrossPack-AVR-20131216/avr/include/util/delay.h ****    environment</em> (GCC option \c -ffreestanding), as the math functions
 220:/usr/local/CrossPack-AVR-20131216/avr/include/util/delay.h ****    required for rounding are not available to the compiler then.
 221:/usr/local/CrossPack-AVR-20131216/avr/include/util/delay.h **** 
 222:/usr/local/CrossPack-AVR-20131216/avr/include/util/delay.h ****  */
 223:/usr/local/CrossPack-AVR-20131216/avr/include/util/delay.h **** void
 224:/usr/local/CrossPack-AVR-20131216/avr/include/util/delay.h **** _delay_us(double __us)
 225:/usr/local/CrossPack-AVR-20131216/avr/include/util/delay.h **** {
 226:/usr/local/CrossPack-AVR-20131216/avr/include/util/delay.h **** 	double __tmp ; 
 227:/usr/local/CrossPack-AVR-20131216/avr/include/util/delay.h **** #if __HAS_DELAY_CYCLES && defined(__OPTIMIZE__) && \
 228:/usr/local/CrossPack-AVR-20131216/avr/include/util/delay.h ****   !defined(__DELAY_BACKWARD_COMPATIBLE__) &&	   \
 229:/usr/local/CrossPack-AVR-20131216/avr/include/util/delay.h ****   __STDC_HOSTED__
 230:/usr/local/CrossPack-AVR-20131216/avr/include/util/delay.h **** 	uint32_t __ticks_dc;
 231:/usr/local/CrossPack-AVR-20131216/avr/include/util/delay.h **** 	extern void __builtin_avr_delay_cycles(unsigned long);
 232:/usr/local/CrossPack-AVR-20131216/avr/include/util/delay.h **** 	__tmp = ((F_CPU) / 1e6) * __us;
 233:/usr/local/CrossPack-AVR-20131216/avr/include/util/delay.h **** 
 234:/usr/local/CrossPack-AVR-20131216/avr/include/util/delay.h **** 	#if defined(__DELAY_ROUND_DOWN__)
 235:/usr/local/CrossPack-AVR-20131216/avr/include/util/delay.h **** 		__ticks_dc = (uint32_t)fabs(__tmp);
 236:/usr/local/CrossPack-AVR-20131216/avr/include/util/delay.h **** 
 237:/usr/local/CrossPack-AVR-20131216/avr/include/util/delay.h **** 	#elif defined(__DELAY_ROUND_CLOSEST__)
 238:/usr/local/CrossPack-AVR-20131216/avr/include/util/delay.h **** 		__ticks_dc = (uint32_t)(fabs(__tmp)+0.5);
 239:/usr/local/CrossPack-AVR-20131216/avr/include/util/delay.h **** 
 240:/usr/local/CrossPack-AVR-20131216/avr/include/util/delay.h **** 	#else
 241:/usr/local/CrossPack-AVR-20131216/avr/include/util/delay.h **** 		//round up by default
 242:/usr/local/CrossPack-AVR-20131216/avr/include/util/delay.h **** 		__ticks_dc = (uint32_t)(ceil(fabs(__tmp)));
 243:/usr/local/CrossPack-AVR-20131216/avr/include/util/delay.h **** 	#endif
 244:/usr/local/CrossPack-AVR-20131216/avr/include/util/delay.h **** 
 245:/usr/local/CrossPack-AVR-20131216/avr/include/util/delay.h **** 	__builtin_avr_delay_cycles(__ticks_dc);
 2777               	.LM395:
 2778 0e34 8FE1      		ldi r24,lo8(31)
 2779 0e36 8A95      		1: dec r24
 2780 0e38 01F4      		brne 1b
 2781               	.LBE135:
 2782               	.LBE134:
 2784               	.Ltext10:
 961:/Users/marklee/Documents/xcode/avr/DTU/Robot_test/Robot_test/mainStateMachine.c ****             PORTD |= (1<<PD4);
 2786               	.LM396:
 2787 0e3a 5C9A      		sbi 0xb,4
 962:/Users/marklee/Documents/xcode/avr/DTU/Robot_test/Robot_test/mainStateMachine.c ****             stopTimeMs(1000);
 2789               	.LM397:
 2790 0e3c 88EE      		ldi r24,lo8(-24)
 2791 0e3e 93E0      		ldi r25,lo8(3)
 2792 0e40 0E94 0000 		call stopTimeMs
 964:/Users/marklee/Documents/xcode/avr/DTU/Robot_test/Robot_test/mainStateMachine.c ****             uart1_puts("W\r\n");    // send turret to 90 degrees
 2794               	.LM398:
 2795 0e44 80E0      		ldi r24,lo8(.LC37)
 2796 0e46 90E0      		ldi r25,hi8(.LC37)
 2797 0e48 0E94 0000 		call uart1_puts
 966:/Users/marklee/Documents/xcode/avr/DTU/Robot_test/Robot_test/mainStateMachine.c ****             stopTimeMs(2000);
 2799               	.LM399:
 2800 0e4c 80ED      		ldi r24,lo8(-48)
 2801 0e4e 97E0      		ldi r25,lo8(7)
 2802 0e50 0E94 0000 		call stopTimeMs
 968:/Users/marklee/Documents/xcode/avr/DTU/Robot_test/Robot_test/mainStateMachine.c ****             stateMessage = 0;
 2804               	.LM400:
 2805 0e54 1092 0000 		sts stateMessage+1,__zero_reg__
 2806 0e58 1092 0000 		sts stateMessage,__zero_reg__
 969:/Users/marklee/Documents/xcode/avr/DTU/Robot_test/Robot_test/mainStateMachine.c ****             state = WALL_CORNERING;
 2808               	.LM401:
 2809 0e5c 86E0      		ldi r24,lo8(6)
 2810 0e5e 00C0      		rjmp .L277
 2811               	.L224:
 975:/Users/marklee/Documents/xcode/avr/DTU/Robot_test/Robot_test/mainStateMachine.c ****             if (stateMessage == 0)
 2813               	.LM402:
 2814 0e60 892B      		or r24,r25
 2815 0e62 01F4      		brne .L245
 977:/Users/marklee/Documents/xcode/avr/DTU/Robot_test/Robot_test/mainStateMachine.c ****                 sendUartToInterface('C', "S7");
 2817               	.LM403:
 2818 0e64 60E0      		ldi r22,lo8(.LC38)
 2819 0e66 70E0      		ldi r23,hi8(.LC38)
 2820 0e68 83E4      		ldi r24,lo8(67)
 2821 0e6a 0E94 0000 		call sendUartToInterface
 978:/Users/marklee/Documents/xcode/avr/DTU/Robot_test/Robot_test/mainStateMachine.c ****                 stateMessage = 1;
 2823               	.LM404:
 2824 0e6e 81E0      		ldi r24,lo8(1)
 2825 0e70 90E0      		ldi r25,0
 2826 0e72 9093 0000 		sts stateMessage+1,r25
 2827 0e76 8093 0000 		sts stateMessage,r24
 2828               	.L245:
 981:/Users/marklee/Documents/xcode/avr/DTU/Robot_test/Robot_test/mainStateMachine.c ****             followWallStateMachine();
 2830               	.LM405:
 2831 0e7a 0E94 0000 		call followWallStateMachine
 983:/Users/marklee/Documents/xcode/avr/DTU/Robot_test/Robot_test/mainStateMachine.c ****             stateMessage = 0;
 2833               	.LM406:
 2834 0e7e 1092 0000 		sts stateMessage+1,__zero_reg__
 2835 0e82 1092 0000 		sts stateMessage,__zero_reg__
 984:/Users/marklee/Documents/xcode/avr/DTU/Robot_test/Robot_test/mainStateMachine.c ****             state = FINAL_STOP;
 2837               	.LM407:
 2838 0e86 87E0      		ldi r24,lo8(7)
 2839               	.L277:
 2840 0e88 8093 0000 		sts state,r24
 986:/Users/marklee/Documents/xcode/avr/DTU/Robot_test/Robot_test/mainStateMachine.c ****             break;
 2842               	.LM408:
 2843 0e8c 0895      		ret
 2844               	.L225:
 2846               	.LM409:
 2847 0e8e 892B      		or r24,r25
 2848 0e90 01F4      		brne .L246
 990:/Users/marklee/Documents/xcode/avr/DTU/Robot_test/Robot_test/mainStateMachine.c ****             {
 991:/Users/marklee/Documents/xcode/avr/DTU/Robot_test/Robot_test/mainStateMachine.c **** //                sendUartToInterface('C', "S7");
 992:/Users/marklee/Documents/xcode/avr/DTU/Robot_test/Robot_test/mainStateMachine.c ****                 stateMessage = 1;
 2850               	.LM410:
 2851 0e92 81E0      		ldi r24,lo8(1)
 2852 0e94 90E0      		ldi r25,0
 2853 0e96 9093 0000 		sts stateMessage+1,r25
 2854 0e9a 8093 0000 		sts stateMessage,r24
 2855               	.L246:
 993:/Users/marklee/Documents/xcode/avr/DTU/Robot_test/Robot_test/mainStateMachine.c ****             }
 994:/Users/marklee/Documents/xcode/avr/DTU/Robot_test/Robot_test/mainStateMachine.c ****             
 995:/Users/marklee/Documents/xcode/avr/DTU/Robot_test/Robot_test/mainStateMachine.c ****             stop();
 2857               	.LM411:
 2858 0e9e 0E94 0000 		call stop
 996:/Users/marklee/Documents/xcode/avr/DTU/Robot_test/Robot_test/mainStateMachine.c ****             stateMessage = 0;
 2860               	.LM412:
 2861 0ea2 1092 0000 		sts stateMessage+1,__zero_reg__
 2862 0ea6 1092 0000 		sts stateMessage,__zero_reg__
 2863               	.L215:
 2864 0eaa 0895      		ret
 2866               	.Lscope17:
 2867               	.global	wall_state
 2868               		.section .bss
 2871               	wall_state:
 2872 0000 00        		.zero	1
 2873               	.global	state
 2876               	state:
 2877 0001 00        		.zero	1
 2878               	.global	stateMessage
 2881               	stateMessage:
 2882 0002 0000      		.zero	2
 2883               	.global	wallStateMessage
 2886               	wallStateMessage:
 2887 0004 0000      		.zero	2
 2888               	.global	startDistance
 2891               	startDistance:
 2892 0006 0000      		.zero	2
 2893               	.global	highSpeedMark
 2896               	highSpeedMark:
 2897 0008 0000      		.zero	2
 2898               	.global	fullCircleDone
 2901               	fullCircleDone:
 2902 000a 0000      		.zero	2
 2903               	.global	lineFoundFlag
 2906               	lineFoundFlag:
 2907 000c 0000      		.zero	2
 2908               	.global	tempDegrees
 2911               	tempDegrees:
 2912 000e 0000      		.zero	2
 2913               		.comm	DistanceSideToChar,2,1
 2914               	.global	prevSideDistance
 2917               	prevSideDistance:
 2918 0010 0000      		.zero	2
 2919               	.global	sideDistance
 2922               	sideDistance:
 2923 0012 0000      		.zero	2
 2924               	.global	newDistanceSide
 2927               	newDistanceSide:
 2928 0014 0000      		.zero	2
 2929               		.comm	DistanceFrontToChar,2,1
 2930               	.global	prevFrontDistance
 2933               	prevFrontDistance:
 2934 0016 0000      		.zero	2
 2935               	.global	frontDistance
 2938               	frontDistance:
 2939 0018 0000      		.zero	2
 2940               	.global	newDistanceFront
 2943               	newDistanceFront:
 2944 001a 0000      		.zero	2
 2945               		.comm	lineToChar,2,1
 2946               	.global	prevLine
 2949               	prevLine:
 2950 001c 0000      		.zero	2
 2951               	.global	newLine
 2954               	newLine:
 2955 001e 0000      		.zero	2
 2956               		.comm	noLineChar,4,1
 2957               	.global	linecount
 2960               	linecount:
 2961 0020 0000      		.zero	2
 2962               		.comm	newDirection,2,1
 2986               		.text
 2988               	.Letext0:
 2989               		.ident	"GCC: (GNU) 4.8.1"
 2990               	.global __do_copy_data
 2991               	.global __do_clear_bss
DEFINED SYMBOLS
                            *ABS*:00000000 mainStateMachine.c
/var/folders/67/_mbxvj9d2zz6j3r80jfbq2kw0000gn/T//cciEILz0.s:2      *ABS*:0000003e __SP_H__
/var/folders/67/_mbxvj9d2zz6j3r80jfbq2kw0000gn/T//cciEILz0.s:3      *ABS*:0000003d __SP_L__
/var/folders/67/_mbxvj9d2zz6j3r80jfbq2kw0000gn/T//cciEILz0.s:4      *ABS*:0000003f __SREG__
/var/folders/67/_mbxvj9d2zz6j3r80jfbq2kw0000gn/T//cciEILz0.s:5      *ABS*:0000003b __RAMPZ__
/var/folders/67/_mbxvj9d2zz6j3r80jfbq2kw0000gn/T//cciEILz0.s:6      *ABS*:00000000 __tmp_reg__
/var/folders/67/_mbxvj9d2zz6j3r80jfbq2kw0000gn/T//cciEILz0.s:7      *ABS*:00000001 __zero_reg__
/var/folders/67/_mbxvj9d2zz6j3r80jfbq2kw0000gn/T//cciEILz0.s:133    .text:00000000 sendUartToInterface
/var/folders/67/_mbxvj9d2zz6j3r80jfbq2kw0000gn/T//cciEILz0.s:169    .text:0000001c sendDistanceToInterface
/var/folders/67/_mbxvj9d2zz6j3r80jfbq2kw0000gn/T//cciEILz0.s:2943   .bss:0000001a newDistanceFront
/var/folders/67/_mbxvj9d2zz6j3r80jfbq2kw0000gn/T//cciEILz0.s:2938   .bss:00000018 frontDistance
/var/folders/67/_mbxvj9d2zz6j3r80jfbq2kw0000gn/T//cciEILz0.s:2933   .bss:00000016 prevFrontDistance
                            *COM*:00000002 DistanceFrontToChar
/var/folders/67/_mbxvj9d2zz6j3r80jfbq2kw0000gn/T//cciEILz0.s:2927   .bss:00000014 newDistanceSide
/var/folders/67/_mbxvj9d2zz6j3r80jfbq2kw0000gn/T//cciEILz0.s:2922   .bss:00000012 sideDistance
/var/folders/67/_mbxvj9d2zz6j3r80jfbq2kw0000gn/T//cciEILz0.s:2917   .bss:00000010 prevSideDistance
/var/folders/67/_mbxvj9d2zz6j3r80jfbq2kw0000gn/T//cciEILz0.s:297    .text:000000e4 sendLineToInterface
/var/folders/67/_mbxvj9d2zz6j3r80jfbq2kw0000gn/T//cciEILz0.s:2954   .bss:0000001e newLine
/var/folders/67/_mbxvj9d2zz6j3r80jfbq2kw0000gn/T//cciEILz0.s:2949   .bss:0000001c prevLine
                            *COM*:00000002 lineToChar
/var/folders/67/_mbxvj9d2zz6j3r80jfbq2kw0000gn/T//cciEILz0.s:355    .text:00000124 stopTimeMs
/var/folders/67/_mbxvj9d2zz6j3r80jfbq2kw0000gn/T//cciEILz0.s:394    .text:0000014c followLine
/var/folders/67/_mbxvj9d2zz6j3r80jfbq2kw0000gn/T//cciEILz0.s:441    .text:00000186 driveDistanceEncoder
/var/folders/67/_mbxvj9d2zz6j3r80jfbq2kw0000gn/T//cciEILz0.s:514    .text:000001de driveDistanceInCM
/var/folders/67/_mbxvj9d2zz6j3r80jfbq2kw0000gn/T//cciEILz0.s:564    .text:00000210 turnDegreesGyro
/var/folders/67/_mbxvj9d2zz6j3r80jfbq2kw0000gn/T//cciEILz0.s:2911   .bss:0000000e tempDegrees
/var/folders/67/_mbxvj9d2zz6j3r80jfbq2kw0000gn/T//cciEILz0.s:718    .text:000002ec turn90degreesEncoder
/var/folders/67/_mbxvj9d2zz6j3r80jfbq2kw0000gn/T//cciEILz0.s:841    .text:00000364 turnSomeDegreesEncoder
/var/folders/67/_mbxvj9d2zz6j3r80jfbq2kw0000gn/T//cciEILz0.s:970    .text:000003e6 turnToLine
/var/folders/67/_mbxvj9d2zz6j3r80jfbq2kw0000gn/T//cciEILz0.s:1094   .text:00000484 findLine
/var/folders/67/_mbxvj9d2zz6j3r80jfbq2kw0000gn/T//cciEILz0.s:2906   .bss:0000000c lineFoundFlag
/var/folders/67/_mbxvj9d2zz6j3r80jfbq2kw0000gn/T//cciEILz0.s:1178   .text:000004fe octagon
/var/folders/67/_mbxvj9d2zz6j3r80jfbq2kw0000gn/T//cciEILz0.s:2901   .bss:0000000a fullCircleDone
/var/folders/67/_mbxvj9d2zz6j3r80jfbq2kw0000gn/T//cciEILz0.s:1641   .text:000007ae fullCircle
/var/folders/67/_mbxvj9d2zz6j3r80jfbq2kw0000gn/T//cciEILz0.s:1857   .text:00000904 followWall
/var/folders/67/_mbxvj9d2zz6j3r80jfbq2kw0000gn/T//cciEILz0.s:1978   .text:00000996 followWallStateMachine
/var/folders/67/_mbxvj9d2zz6j3r80jfbq2kw0000gn/T//cciEILz0.s:2871   .bss:00000000 wall_state
/var/folders/67/_mbxvj9d2zz6j3r80jfbq2kw0000gn/T//cciEILz0.s:2886   .bss:00000004 wallStateMessage
/var/folders/67/_mbxvj9d2zz6j3r80jfbq2kw0000gn/T//cciEILz0.s:2308   .text:00000b68 mainState
/var/folders/67/_mbxvj9d2zz6j3r80jfbq2kw0000gn/T//cciEILz0.s:2876   .bss:00000001 state
/var/folders/67/_mbxvj9d2zz6j3r80jfbq2kw0000gn/T//cciEILz0.s:2881   .bss:00000002 stateMessage
/var/folders/67/_mbxvj9d2zz6j3r80jfbq2kw0000gn/T//cciEILz0.s:2891   .bss:00000006 startDistance
/var/folders/67/_mbxvj9d2zz6j3r80jfbq2kw0000gn/T//cciEILz0.s:2960   .bss:00000020 linecount
                            *COM*:00000004 noLineChar
/var/folders/67/_mbxvj9d2zz6j3r80jfbq2kw0000gn/T//cciEILz0.s:2896   .bss:00000008 highSpeedMark
                            *COM*:00000002 DistanceSideToChar
                            *COM*:00000002 newDirection

UNDEFINED SYMBOLS
uart_putc
uart_puts
HCSR04_get_distance_cm
__itoa_ncheck
LineSensors_value
time1ms
stop
adjustSpeed
LineSensors_check_all
lineStateMachine
encoderValueLeft
encoderValueRight
speed
drive
__floatsisf
__divsf3
__fixsfsi
direction
__tablejump2__
getCountNoLine
uart1_puts
__do_copy_data
__do_clear_bss
